(lp1
((F1227.5892333984375
F13.431530952453613
tF1.9725170135498047
F295.70556640625
F0.015284297056496143
I6816255
I-1
tp2
a((F1298.278564453125
F13.981026649475098
tF1.918700098991394
F266.47705078125
F0.01582561619579792
I4784639
I-1
tp3
a((F1608.474365234375
F15.66258430480957
tF1.8447788953781128
F311.18365478515625
F0.01462221797555685
I1966591
I-1
tp4
a((F887.0933837890625
F20.886192321777344
tF2.1351172924041748
F285.2508544921875
F0.014831901527941227
I12517887
I-1
tp5
a((F1282.678955078125
F25.569164276123047
tF1.8084299564361572
F178.65472412109375
F0.013640358112752438
I524799
I-1
tp6
a((F774.1119384765625
F33.531394958496094
tF1.8628782033920288
F0.8763427734375
F0.014204469509422779
I2621951
I-1
tp7
a((F185.48536682128906
F35.531993865966797
tF2.1710343360900879
F314.0306396484375
F0.01519445888698101
I13697535
I-1
tp8
a((F187.96609497070312
F38.981761932373047
tF2.0014643669128418
F318.75830078125
F0.014210687950253487
I7864831
I-1
tp9
a((F1591.5333251953125
F47.661720275878906
tF1.94936203956604
F356.40216064453125
F0.017283638939261436
I5898751
I-1
tp10
a((F1045.320068359375
F54.540691375732422
tF2.0042009353637695
F319.54788208007812
F0.019137738272547722
I7930367
I-1
tp11
a((F1564.5535888671875
F56.131217956542969
tF1.8853572607040405
F310.07586669921875
F0.01381224300712347
I3539455
I-1
tp12
a((F1578.922119140625
F57.343002319335938
tF2.0099375247955322
F187.64276123046875
F0.017153019085526466
I8126975
I-1
tp13
a((F1562.4505615234375
F57.860481262207031
tF2.1535327434539795
F312.05551147460938
F0.020112380385398865
I13107711
I-1
tp14
a((F1613.986083984375
F58.627429962158203
tF1.8888034820556641
F299.430419921875
F0.019631126895546913
I3670527
I-1
tp15
a((F573.95819091796875
F59.946331024169922
tF2.2515060901641846
F2.405029296875
F0.014356863684952259
I16384511
I-1
tp16
a((F1416.3167724609375
F59.920055389404297
tF2.062164306640625
F284.2958984375
F0.013900208286941051
I10027519
I-1
tp17
a((F1454.614501953125
F70.341583251953125
tF2.2434499263763428
F226.37809753417969
F0.013423564843833447
I16122367
I-1
tp18
a((F1194.095458984375
F71.440689086914062
tF2.2050683498382568
F306.91986083984375
F0.014200411736965179
I14877183
I-1
tp19
a((F1431.1026611328125
F71.485481262207031
tF2.01011061668396
F335.93917846679688
F0.02039015106856823
I8126975
I-1
tp20
a((F1592.149169921875
F73.018531799316406
tF1.9111984968185425
F13.139190673828125
F0.013361720368266106
I4522495
I-1
tp21
a((F1128.572998046875
F80.886711120605469
tF2.2282898426055908
F3.00189208984375
F0.017558224499225616
I15598079
I-1
tp22
a((F1320.8150634765625
F83.272926330566406
tF1.8863245248794556
F310.09335327148438
F0.015250192023813725
I3539455
I-1
tp23
a((F459.80477905273438
F86.0272216796875
tF1.9580338001251221
F5.10748291015625
F0.015671238303184509
I6226431
I-1
tp24
a((F1084.9910888671875
F86.85552978515625
tF2.0318934917449951
F181.06390380859375
F0.013418438844382763
I8913407
I-1
tp25
a((F714.4913330078125
F95.859489440917969
tF1.9687654972076416
F9.983978271484375
F0.015881340950727463
I6619647
I-1
tp26
a((F1340.5087890625
F111.67728424072266
tF2.136171817779541
F239.87583923339844
F0.01426816638559103
I12517887
I-1
tp27
a((F570.600341796875
F120.50064086914062
tF1.9863132238388062
F6.27227783203125
F0.014878283254802227
I7275007
I-1
tp28
a((F832.5380859375
F120.54868316650391
tF2.2136702537536621
F352.05245971679688
F0.014678850769996643
I15139327
I-1
tp29
a((F144.77641296386719
F120.88473510742188
tF2.0981338024139404
F232.20008850097656
F0.017035171389579773
I11272703
I-1
tp30
a((F65.404106140136719
F124.38147735595703
tF2.2489755153656006
F30.964935302734375
F0.013677814044058323
I16253439
I-1
tp31
a((F1619.8009033203125
F131.09214782714844
tF1.9659779071807861
F205.19166564941406
F0.013450912199914455
I6554111
I-1
tp32
a((F1019.4942016601562
F138.41595458984375
tF1.9168468713760376
F354.10009765625
F0.014930786564946175
I4719103
I-1
tp33
a((F1616.8975830078125
F140.72613525390625
tF2.0532958507537842
F210.99349975585938
F0.014457037672400475
I9699839
I-1
tp34
a((F1294.7628173828125
F142.02976989746094
tF1.9472881555557251
F330.458251953125
F0.016519308090209961
I5833215
I-1
tp35
a((F1256.968994140625
F144.5208740234375
tF2.2111608982086182
F29.1669921875
F0.013385646045207977
I15073791
I-1
tp36
a((F1627.4404296875
F146.09255981445312
tF1.8411654233932495
F26.98748779296875
F0.014998492784798145
I1769983
I-1
tp37
a((F1302.45458984375
F151.39451599121094
tF1.9243919849395752
F310.40338134765625
F0.016228508204221725
I4981247
I-1
tp38
a((F1623.3900146484375
F152.07955932617188
tF1.8873112201690674
F28.1890869140625
F0.015446710400283337
I3604991
I-1
tp39
a((F1469.426025390625
F161.31452941894531
tF2.3927066326141357
F266.0013427734375
F0.01343732513487339
I4063999
I-1
tp40
a((F1322.7503662109375
F164.32662963867188
tF2.117114782333374
F298.53140258789062
F0.014535568654537201
I11928063
I-1
tp41
a((F569.56903076171875
F169.56108093261719
tF2.1336719989776611
F2.01080322265625
F0.015065095387399197
I12452351
I-1
tp42
a((F218.82695007324219
F181.71257019042969
tF2.0236561298370361
F44.136322021484375
F0.013569810427725315
I8651263
I-1
tp43
a((F730.74615478515625
F184.48953247070312
tF1.910382866859436
F179.84292602539062
F0.014384480193257332
I4456959
I-1
tp44
a((F1441.769287109375
F206.63873291015625
tF2.0296773910522461
F269.072265625
F0.015428535640239716
I8847871
I-1
tp45
a((F1451.911376953125
F206.47654724121094
tF2.2465870380401611
F355.69857788085938
F0.019194068387150764
I16187903
I-1
tp46
a((F1491.28173828125
F213.78167724609375
tF1.92970871925354
F312.73095703125
F0.014916351065039635
I5177855
I-1
tp47
a((F1619.987548828125
F219.77549743652344
tF1.8400192260742188
F276.13372802734375
F0.015705559402704239
I1769983
I-1
tp48
a((F1089.42041015625
F228.66551208496094
tF2.1289103031158447
F1.695068359375
F0.018578454852104187
I12321279
I-1
tp49
a((F992.3565673828125
F230.39488220214844
tF2.1148629188537598
F330.04489135742188
F0.015285059809684753
I11796991
I-1
tp50
a((F1072.376953125
F237.01194763183594
tF2.2016341686248779
F322.94772338867188
F0.013389000669121742
I14746111
I-1
tp51
a((F1486.153564453125
F242.31942749023438
tF1.8721274137496948
F0.55169677734375
F0.014818692579865456
I3015167
I-1
tp52
a((F1638.5394287109375
F243.50729370117188
tF2.3310341835021973
F20.81195068359375
F0.013950998894870281
I2163455
I-1
tp53
a((F991.34381103515625
F245.58494567871094
tF1.9496411085128784
F9.620025634765625
F0.015210662037134171
I5964287
I-1
tp54
a((F746.625244140625
F250.46723937988281
tF1.918948769569397
F93.8763427734375
F0.013506064191460609
I4784639
I-1
tp55
a((F484.42141723632812
F250.9580078125
tF1.9272596836090088
F277.37127685546875
F0.016417542472481728
I5112319
I-1
tp56
a((F669.6409912109375
F251.97908020019531
tF2.0950076580047607
F95.29974365234375
F0.013760853558778763
I11141631
I-1
tp57
a((F1196.6513671875
F12.353475570678711
tF2.2651698589324951
F262.3790283203125
F0.013368761166930199
I66303
I-1
tp58
a((F1609.791015625
F30.073293685913086
tF2.6967456340789795
F124.3192138671875
F0.01498995628207922
I12714751
I-1
tp59
a((F659.2379150390625
F30.796756744384766
tF2.167616605758667
F290.10919189453125
F0.016067659482359886
I13631999
I-1
tp60
a((F1034.7806396484375
F38.352008819580078
tF2.0617895126342773
F336.26806640625
F0.016169929876923561
I9961983
I-1
tp61
a((F1132.075439453125
F48.685386657714844
tF2.4463663101196289
F1.64788818359375
F0.013588509522378445
I5636863
I-1
tp62
a((F1146.7391357421875
F56.504447937011719
tF2.2056896686553955
F184.64907836914062
F0.013627027161419392
I14877183
I-1
tp63
a((F1504.1920166015625
F66.817619323730469
tF2.4360404014587402
F315.327880859375
F0.015956861898303032
I5309183
I-1
tp64
a((F1333.1209716796875
F86.671073913574219
tF2.6119434833526611
F269.78277587890625
F0.013619065284729004
I10355455
I-1
tp65
a((F1461.3099365234375
F93.648262023925781
tF2.3236677646636963
F359.64151000976562
F0.015014328993856907
I1901311
I-1
tp66
a((F1495.2296142578125
F101.88459014892578
tF2.1939072608947754
F221.1419677734375
F0.015144866891205311
I14483967
I-1
tp67
a((F1606.0517578125
F104.62039184570312
tF2.6057929992675781
F265.42819213867188
F0.014216141775250435
I10224383
I-1
tp68
a((F1258.5789794921875
F135.947509765625
tF2.4871077537536621
F3.264923095703125
F0.016585361212491989
I6816511
I-1
tp69
a((F1629.68310546875
F139.05029296875
tF2.3902139663696289
F27.975494384765625
F0.01756906695663929
I3932927
I-1
tp70
a((F892.21099853515625
F150.86677551269531
tF2.6666693687438965
F251.31039428710938
F0.015931781381368637
I11862783
I-1
tp71
a((F1509.59375
F209.09078979492188
tF2.2345788478851318
F180.886474609375
F0.013590746559202671
I15794687
I-1
tp72
a((F1381.8004150390625
F219.2978515625
tF2.4896752834320068
F204.61231994628906
F0.014368684962391853
I6882047
I-1
tp73
a((F1217.7344970703125
F220.34223937988281
tF2.4239380359649658
F83.707366943359375
F0.014015608467161655
I4981503
I-1
tp74
a((F1245.5245361328125
F222.24476623535156
tF2.6367394924163818
F329.58340454101562
F0.014708122238516808
I11076351
I-1
tp75
a((F1485.992431640625
F234.22563171386719
tF2.3912754058837891
F1.029693603515625
F0.015985729172825813
I3998463
I-1
tp76
a((F1283.3131103515625
F22.029642105102539
tF3.0694248676300049
F175.6634521484375
F0.013746784068644047
I5374975
I-1
tp77
a((F1575.4688720703125
F55.292396545410156
tF3.1804304122924805
F181.319580078125
F0.016523381695151329
I7930879
I-1
tp78
a((F1346.4962158203125
F60.775409698486328
tF3.2869381904602051
F287.43515014648438
F0.014815286733210087
I10290175
I-1
tp79
a((F810.62261962890625
F72.715072631835938
tF3.0815832614898682
F245.17021179199219
F0.013874838128685951
I5637119
I-1
tp80
a((F1282.6015625
F78.972000122070312
tF3.1304862499237061
F178.97659301757812
F0.014651600271463394
I6751231
I-1
tp81
a((F1369.9315185546875
F99.784164428710938
tF3.4387061595916748
F180.76901245117188
F0.014088195748627186
I13566975
I-1
tp82
a((F1579.9324951171875
F101.47313690185547
tF3.2084667682647705
F176.47895812988281
F0.015789208933711052
I8520703
I-1
tp83
a((F1019.8419189453125
F104.37191772460938
tF3.4388642311096191
F6.697357177734375
F0.014085305854678154
I13566975
I-1
tp84
a((F1402.9610595703125
F109.51426696777344
tF2.8861970901489258
F266.474609375
F0.016323953866958618
I918527
I-1
tp85
a((F1170.899169921875
F151.25146484375
tF2.9148819446563721
F291.70147705078125
F0.013417684473097324
I1639423
I-1
tp86
a((F732.0174560546875
F159.09866333007812
tF3.3602268695831299
F180.33969116210938
F0.016752675175666809
I11863039
I-1
tp87
a((F1170.5653076171875
F184.71990966796875
tF3.053882360458374
F92.099334716796875
F0.014932069927453995
I4981759
I-1
tp88
a((F1093.1324462890625
F240.57746887207031
tF2.9686839580535889
F359.82492065429688
F0.014648242853581905
I2950143
I-1
tp89
a((F1135.9874267578125
F244.9444580078125
tF3.2077972888946533
F0.22918701171875
F0.014060487039387226
I8520703
I-1
tp90
a((F1283.15283203125
F33.198085784912109
tF4.2996048927307129
F182.89559936523438
F0.01761823333799839
I12976384
I-1
tp91
a((F840.281494140625
F50.725231170654297
tF4.0511131286621094
F78.03948974609375
F0.015143158845603466
I8716544
I-1
tp92
a((F1283.3680419921875
F53.603412628173828
tF4.2380104064941406
F181.17037963867188
F0.017822682857513428
I11993344
I-1
tp93
a((F711.80072021484375
F59.226051330566406
tF4.3738536834716797
F337.9815673828125
F0.017523316666483879
I14221568
I-1
tp94
a((F1346.63232421875
F60.216724395751953
tF4.0161585807800293
F287.24392700195312
F0.014575916342437267
I8061184
I-1
tp95
a((F1413.03515625
F107.31587219238281
tF3.9856698513031006
F244.060302734375
F0.01465777400881052
I7536896
I-1
tp96
a((F1257.84765625
F129.93002319335938
tF4.2181687355041504
F0.122955322265625
F0.017710484564304352
I11600128
I-1
tp97
a((F1376.26953125
F148.45703125
tF4.598907470703125
F91.3228759765625
F0.01365475170314312
I1180160
I-1
tp98
a((F347.91445922851562
F217.65908813476562
tF4.5115303993225098
F178.88522338867188
F0.018916010856628418
I16515328
I-1
tp99
a((F347.91445922851562
F217.65908813476562
tF4.5115303993225098
F6.7335205078125
F0.018916010856628418
I16515328
I-1
tp100
a((F1296.56884765625
F241.87110900878906
tF4.2495741844177246
F280.59326171875
F0.016089340671896935
I12189952
I-1
tp101
a((F1626.6142578125
F42.195404052734375
tF5.4905200004577637
F334.45468139648438
F0.027210189029574394
I13959680
I-1
tp102
a((F1626.6142578125
F42.195404052734375
tF5.4905200004577637
F157.79345703125
F0.027210189029574394
I13959680
I-1
tp103
a((F1630.2840576171875
F51.393932342529297
tF5.5204768180847168
F342.79022216796875
F0.03048546239733696
I14352896
I-1
tp104
a((F1630.2840576171875
F51.393932342529297
tF5.5204768180847168
F159.80987548828125
F0.03048546239733696
I14352896
I-1
tp105
a((F1044.5885009765625
F55.999435424804688
tF5.0778746604919434
F323.73980712890625
F0.0177940484136343
I8323584
I-1
tp106
a((F1185.75537109375
F61.05194091796875
tF5.2547116279602051
F5.25
F0.014449541456997395
I10813952
I-1
tp107
a((F1627.763671875
F82.668960571289062
tF5.0599722862243652
F179.29818725585938
F0.015696795657277107
I8061440
I-1
tp108
a((F1388.1851806640625
F104.6380615234375
tF4.5292000770568848
F318.92929077148438
F0.013802518136799335
I66048
I-1
tp109
a((F1278.0338134765625
F122.95170593261719
tF4.8114523887634277
F180.8216552734375
F0.013498595915734768
I4456960
I-1
tp110
a((F897.837890625
F153.70188903808594
tF4.7298741340637207
F247.82022094726562
F0.013552581891417503
I3211776
I-1
tp111
a((F409.82101440429688
F191.16690063476562
tF4.760953426361084
F210.73573303222656
F0.013387995772063732
I3670528
I-1
tp112
a((F1063.4244384765625
F220.37069702148438
tF5.0286974906921387
F317.2186279296875
F0.016447490081191063
I7602688
I-1
tp113
a((F347.2628173828125
F232.67474365234375
tF4.9929909706115723
F0.039215087890625
F0.019131047651171684
I7143936
I-1
tp114
a((F347.2628173828125
F232.67474365234375
tF4.9929909706115723
F186.49320983886719
F0.019131047651171684
I7143936
I-1
tp115
a((F809.80352783203125
F253.05886840820312
tF4.620394229888916
F90.40673828125
F0.013803767040371895
I1507840
I-1
tp116
a((F762.69732666015625
F254.84489440917969
tF5.4344782829284668
F86.70452880859375
F0.013660380616784096
I13238784
I-1
tp117
a((F598.13922119140625
F258.232421875
tF5.1672248840332031
F89.374053955078125
F0.013408508151769638
I9568768
I-1
tp118
a((F1574.0413818359375
F9.7262067794799805
tF6.9910483360290527
F90.49383544921875
F0.028156934306025505
I14746368
I-1
tp119
a((F1588.3631591796875
F12.544100761413574
tF6.5970888137817383
F109.51068115234375
F0.027674423530697823
I10552064
I-1
tp120
a((F1292.341064453125
F24.396940231323242
tF6.3649945259094238
F80.681243896484375
F0.015034515410661697
I7930624
I-1
tp121
a((F1619.7763671875
F32.773529052734375
tF7.1043939590454102
F317.14797973632812
F0.028735268861055374
I15926016
I-1
tp122
a((F1619.7763671875
F32.773529052734375
tF7.1043939590454102
F135.77188110351562
F0.028735268861055374
I15926016
I-1
tp123
a((F1618.0716552734375
F42.474720001220703
tF6.3548426628112793
F142.56257629394531
F0.017506826668977737
I7865088
I-1
tp124
a((F1186.8079833984375
F54.486583709716797
tF6.1600761413574219
F24.34912109375
F0.013333555310964584
I5571328
I-1
tp125
a((F1625.373291015625
F63.101455688476562
tF6.8985466957092285
F168.94992065429688
F0.021464621648192406
I13763328
I-1
tp126
a((F1633.988037109375
F65.333587646484375
tF5.7906303405761719
F350.50619506835938
F0.029334399849176407
I1114880
I-1
tp127
a((F1633.988037109375
F65.333587646484375
tF5.7906303405761719
F177.07948303222656
F0.029334399849176407
I1114880
I-1
tp128
a((F184.345703125
F99.994583129882812
tF6.3855738639831543
F301.62167358398438
F0.023469962179660797
I8192768
I-1
tp129
a((F184.345703125
F99.994583129882812
tF6.3855738639831543
F111.17189025878906
F0.023469962179660797
I8192768
I-1
tp130
a((F1075.260009765625
F102.74034118652344
tF5.7572875022888184
F324.35934448242188
F0.01889495737850666
I721664
I-1
tp131
a((F189.59671020507812
F111.70184326171875
tF6.4739890098571777
F195.71235656738281
F0.017308691516518593
I9175808
I-1
tp132
a((F1284.5054931640625
F117.95395660400391
tF6.0669798851013184
F344.73397827148438
F0.028716232627630234
I4522752
I-1
tp133
a((F1284.5054931640625
F117.95395660400391
tF6.0669798851013184
F183.46681213378906
F0.028716232627630234
I4522752
I-1
tp134
a((F194.97853088378906
F119.65480804443359
tF5.9236278533935547
F30.28619384765625
F0.0225351732224226
I2753280
I-1
tp135
a((F833.346435546875
F135.87422180175781
tF5.1678633689880371
F333.703857421875
F0.015932075679302216
I9568768
I-1
tp136
a((F113.37779235839844
F183.32661437988281
tF5.6356158256530762
F200.97750854492188
F0.028510702773928642
I15860224
I-1
tp137
a((F113.37779235839844
F183.32661437988281
tF5.6356158256530762
F43.2833251953125
F0.028510702773928642
I15860224
I-1
tp138
a((F1550.774658203125
F217.99661254882812
tF6.6481537818908691
F171.9573974609375
F0.024663465097546577
I11076352
I-1
tp139
a((F1550.774658203125
F217.99661254882812
tF6.6481537818908691
F115.35977172851562
F0.024663465097546577
I11076352
I-1
tp140
a((F1434.3233642578125
F219.058349609375
tF6.4493227005004883
F278.78958129882812
F0.028169669210910797
I8913664
I-1
tp141
a((F1434.3233642578125
F219.058349609375
tF6.4493227005004883
F76.045257568359375
F0.028169669210910797
I8913664
I-1
tp142
a((F1506.8424072265625
F221.78483581542969
tF7.0960550308227539
F317.60162353515625
F0.030963672325015068
I15794944
I-1
tp143
a((F1506.8424072265625
F221.78483581542969
tF7.0960550308227539
F191.42318725585938
F0.030963672325015068
I15794944
I-1
tp144
a((F1281.707275390625
F223.28352355957031
tF5.9272418022155762
F278.97369384765625
F0.030740028247237206
I2818816
I-1
tp145
a((F1281.707275390625
F223.28352355957031
tF5.9272418022155762
F75.22637939453125
F0.030740028247237206
I2818816
I-1
tp146
a((F1290.8782958984375
F222.76374816894531
tF5.9944472312927246
F278.51828002929688
F0.027094559744000435
I3605248
I-1
tp147
a((F1290.8782958984375
F222.76374816894531
tF5.9944472312927246
F82.158416748046875
F0.027094559744000435
I3605248
I-1
tp148
a((F1026.9302978515625
F226.19775390625
tF6.154625415802002
F358.41592407226562
F0.01441878080368042
I5505792
I-1
tp149
a((F1375.226318359375
F227.28192138671875
tF7.0465621948242188
F331.40023803710938
F0.031061079353094101
I15336192
I-1
tp150
a((F1375.226318359375
F227.28192138671875
tF7.0465621948242188
F208.51626586914062
F0.031061079353094101
I15336192
I-1
tp151
a((F1095.2154541015625
F233.11471557617188
tF6.0480022430419922
F0.063751220703125
F0.016018062829971313
I4260608
I-1
tp152
a((F1618.8480224609375
F232.74252319335938
tF6.0242085456848145
F276.71600341796875
F0.028364628553390503
I3998464
I-1
tp153
a((F1618.8480224609375
F232.74252319335938
tF6.0242085456848145
F73.6630859375
F0.028364628553390503
I3998464
I-1
tp154
a((F891.24224853515625
F238.157958984375
tF7.0028166770935059
F180.77316284179688
F0.024017274379730225
I14877440
I-1
tp155
a((F595.963134765625
F242.64511108398438
tF6.5405678749084473
F269.81036376953125
F0.0136109609156847
I9896704
I-1
tp156
a((F533.42791748046875
F243.79437255859375
tF6.7152934074401855
F269.9359130859375
F0.013479940593242645
I11862784
I-1
tp157
a((F1138.77294921875
F245.91421508789062
tF7.1203789710998535
F1.502410888671875
F0.014200153760612011
I16057088
I-1
tp158
a((F426.92852783203125
F245.73562622070312
tF6.6906952857971191
F267.3883056640625
F0.013841570354998112
I11600640
I-1
tp159
a((F901.22137451171875
F259.2276611328125
tF6.8639702796936035
F75.31036376953125
F0.023278094828128815
I13435648
I-1
tp160
a((F901.22137451171875
F259.2276611328125
tF6.8639702796936035
F33.585357666015625
F0.023278094828128815
I13435648
I-1
tp161
a((F480.12005615234375
F260.9613037109375
tF6.0278606414794922
F88.8887939453125
F0.013583664782345295
I3998464
I-1
tp162
a((F540.176513671875
F260.81680297851562
tF6.7138276100158691
F89.83709716796875
F0.014409085735678673
I11797248
I-1
tp163
a((F429.92044067382812
F262.72857666015625
tF6.829648494720459
F90.5526123046875
F0.014474737457931042
I13042432
I-1
tp164
a((F1288.2139892578125
F16.425050735473633
tF7.8788690567016602
F260.43115234375
F0.030184244737029076
I6684929
I-1
tp165
a((F1605.447021484375
F20.24638557434082
tF7.703648567199707
F306.07931518554688
F0.029932282865047455
I5046529
I-1
tp166
a((F1605.447021484375
F20.24638557434082
tF7.703648567199707
F126.05209350585938
F0.029932282865047455
I5046529
I-1
tp167
a((F759.04730224609375
F21.603597640991211
tF8.9090633392333984
F252.82638549804688
F0.016588365659117699
I15597825
I-1
tp168
a((F1294.56005859375
F26.66900634765625
tF8.6542348861694336
F82.796051025390625
F0.015557861886918545
I13500673
I-1
tp169
a((F1184.4969482421875
F60.545478820800781
tF7.2551054954528809
F8.72857666015625
F0.013800122775137424
I721153
I-1
tp170
a((F1441.9521484375
F78.810699462890625
tF8.1437549591064453
F327.73049926757812
F0.029613425955176353
I9044225
I-1
tp171
a((F1441.9521484375
F78.810699462890625
tF8.1437549591064453
F211.294921875
F0.029613425955176353
I9044225
I-1
tp172
a((F675.49798583984375
F101.93974304199219
tF8.2648916244506836
F208.50953674316406
F0.015811115503311157
I10158337
I-1
tp173
a((F1084.1658935546875
F102.28525543212891
tF8.226872444152832
F318.85650634765625
F0.03402748703956604
I9830657
I-1
tp174
a((F1084.1658935546875
F102.28525543212891
tF8.226872444152832
F186.26922607421875
F0.03402748703956604
I9830657
I-1
tp175
a((F1441.9315185546875
F101.35387420654297
tF7.6569972038269043
F145.82345581054688
F0.02961299754679203
I4587777
I-1
tp176
a((F1441.9315185546875
F101.35387420654297
tF7.6569972038269043
F29.9117431640625
F0.02961299754679203
I4587777
I-1
tp177
a((F157.23046875
F105.56809234619141
tF8.2256622314453125
F209.59922790527344
F0.031753402203321457
I9765121
I-1
tp178
a((F157.23046875
F105.56809234619141
tF8.2256622314453125
F31.1932373046875
F0.031753402203321457
I9765121
I-1
tp179
a((F1314.49072265625
F104.35417175292969
tF7.5834403038024902
F277.93984985351562
F0.02945718914270401
I3932417
I-1
tp180
a((F1314.49072265625
F104.35417175292969
tF7.5834403038024902
F110.78579711914062
F0.02945718914270401
I3932417
I-1
tp181
a((F156.92947387695312
F106.12033843994141
tF8.246577262878418
F209.95938110351562
F0.031709369271993637
I9961729
I-1
tp182
a((F123.37265014648438
F118.32274627685547
tF7.7231383323669434
F294.910400390625
F0.029443109408020973
I5243137
I-1
tp183
a((F123.37265014648438
F118.32274627685547
tF7.7231383323669434
F115.36593627929688
F0.029443109408020973
I5243137
I-1
tp184
a((F1633.84326171875
F118.12574005126953
tF7.7816438674926758
F203.12275695800781
F0.033961828798055649
I5767425
I-1
tp185
a((F1633.84326171875
F118.12574005126953
tF7.7816438674926758
F6.71661376953125
F0.033961828798055649
I5767425
I-1
tp186
a((F389.87393188476562
F122.3536376953125
tF7.8169093132019043
F269.64627075195312
F0.016243614256381989
I6095105
I-1
tp187
a((F466.29037475585938
F131.94902038574219
tF8.0960731506347656
F217.8670654296875
F0.018440382555127144
I8651009
I-1
tp188
a((F922.45294189453125
F132.17958068847656
tF9.0446138381958008
F209.30047607421875
F0.016298720613121986
I16646401
I-1
tp189
a((F126.12640380859375
F160.52053833007812
tF8.7260456085205078
F221.75431823730469
F0.032631456851959229
I14090497
I-1
tp190
a((F126.12640380859375
F160.52053833007812
tF8.7260456085205078
F18.04052734375
F0.032631456851959229
I14090497
I-1
tp191
a((F874.18804931640625
F162.25064086914062
tF9.0498723983764648
F271.9681396484375
F0.016453955322504044
I16711937
I-1
tp192
a((F1303.6187744140625
F175.67691040039062
tF7.7624192237854004
F125.99906921386719
F0.016496013849973679
I5636353
I-1
tp193
a((F1575.9783935546875
F206.3414306640625
tF8.3338937759399414
F275.40069580078125
F0.036967109888792038
I10748161
I-1
tp194
a((F1575.9783935546875
F206.3414306640625
tF8.3338937759399414
F60.3953857421875
F0.036967109888792038
I10748161
I-1
tp195
a((F1630.49267578125
F205.21917724609375
tF7.7159762382507324
F278.65966796875
F0.036673210561275482
I5177601
I-1
tp196
a((F1231.7008056640625
F208.00790405273438
tF7.5369095802307129
F288.70806884765625
F0.013630851171910763
I3473665
I-1
tp197
a((F1548.3623046875
F207.06019592285156
tF8.5392026901245117
F259.4169921875
F0.034082420170307159
I12517633
I-1
tp198
a((F1548.3623046875
F207.06019592285156
tF8.5392026901245117
F127.10914611816406
F0.034082420170307159
I12517633
I-1
tp199
a((F338.44155883789062
F210.29104614257812
tF8.8941516876220703
F104.62751770019531
F0.020329747349023819
I15466753
I-1
tp200
a((F1447.93212890625
F209.44082641601562
tF7.9579463005065918
F275.29287719726562
F0.035589192062616348
I7405825
I-1
tp201
a((F1516.6317138671875
F209.47955322265625
tF8.4604558944702148
F353.33419799804688
F0.037030242383480072
I11862273
I-1
tp202
a((F1516.6317138671875
F209.47955322265625
tF8.4604558944702148
F194.93902587890625
F0.037030242383480072
I11862273
I-1
tp203
a((F1296.782958984375
F213.76840209960938
tF8.4212417602539062
F277.018310546875
F0.034896790981292725
I11469057
I-1
tp204
a((F1117.7919921875
F218.75196838378906
tF8.2552509307861328
F260.6480712890625
F0.03476397693157196
I10027265
I-1
tp205
a((F1144.3505859375
F218.06805419921875
tF8.8403806686401367
F274.024658203125
F0.035295609384775162
I15008001
I-1
tp206
a((F1571.4256591796875
F218.75929260253906
tF8.2875404357910156
F60.75811767578125
F0.023288926109671593
I10354945
I-1
tp207
a((F1087.2708740234375
F221.95988464355469
tF8.8014678955078125
F355.46127319335938
F0.038027536123991013
I14680321
I-1
tp208
a((F907.28680419921875
F224.21604919433594
tF8.8290796279907227
F278.4090576171875
F0.030838392674922943
I14942465
I-1
tp209
a((F1018.2870483398438
F224.25260925292969
tF8.7950563430786133
F355.3175048828125
F0.039171207696199417
I14614785
I-1
tp210
a((F1018.2870483398438
F224.25260925292969
tF8.7950563430786133
F187.40950012207031
F0.039171207696199417
I14614785
I-1
tp211
a((F1630.4354248046875
F223.39619445800781
tF7.4077963829040527
F332.9329833984375
F0.032404094934463501
I2228481
I-1
tp212
a((F1630.4354248046875
F223.39619445800781
tF7.4077963829040527
F288.8065185546875
F0.032404094934463501
I2228481
I-1
tp213
a((F1630.4354248046875
F223.39619445800781
tF7.4077963829040527
F75.253173828125
F0.032404094934463501
I2228481
I-1
tp214
a((F1630.4354248046875
F223.39619445800781
tF7.4077963829040527
F5.513671875
F0.032404094934463501
I2228481
I-1
tp215
a((F1351.373779296875
F224.73655700683594
tF7.7064104080200195
F160.49777221679688
F0.014995601959526539
I5112065
I-1
tp216
a((F1445.212890625
F227.77214050292969
tF7.3083739280700684
F359.85409545898438
F0.032177217304706573
I1245441
I-1
tp217
a((F1140.2650146484375
F230.28242492675781
tF8.0622797012329102
F59.747894287109375
F0.02371724508702755
I8323329
I-1
tp218
a((F1140.2650146484375
F230.28242492675781
tF8.0622797012329102
F8.93402099609375
F0.02371724508702755
I8323329
I-1
tp219
a((F1119.2896728515625
F231.24835205078125
tF8.113947868347168
F170.82398986816406
F0.022577263414859772
I8782081
I-1
tp220
a((F1294.299560546875
F231.803466796875
tF7.4560160636901855
F0.3643798828125
F0.032042048871517181
I2687233
I-1
tp221
a((F1493.325927734375
F236.73640441894531
tF8.3623600006103516
F131.94517517089844
F0.030898807570338249
I11010305
I-1
tp222
a((F1493.325927734375
F236.73640441894531
tF8.3623600006103516
F15.6368408203125
F0.030898807570338249
I11010305
I-1
tp223
a((F764.7364501953125
F237.86090087890625
tF7.8307533264160156
F269.7630615234375
F0.014324461109936237
I6226177
I-1
tp224
a((F1357.4173583984375
F238.24189758300781
tF7.7908539772033691
F159.04701232910156
F0.016282649710774422
I5898497
I-1
tp225
a((F571.2252197265625
F241.64944458007812
tF8.312103271484375
F269.63699340820312
F0.013514238409698009
I10551553
I-1
tp226
a((F1634.09619140625
F241.52696228027344
tF8.3055038452148438
F78.359375
F0.033736951649188995
I10486017
I-1
tp227
a((F356.92288208007812
F244.48661804199219
tF8.2419042587280273
F276.0753173828125
F0.017598832026124001
I9961729
I-1
tp228
a((F852.07391357421875
F245.44471740722656
tF8.521763801574707
F274.65264892578125
F0.033151887357234955
I12386561
I-1
tp229
a((F852.07391357421875
F245.44471740722656
tF8.521763801574707
F84.495269775390625
F0.033151887357234955
I12386561
I-1
tp230
a((F1448.04541015625
F246.19026184082031
tF8.4684648513793945
F79.765960693359375
F0.036001753062009811
I11927809
I-1
tp231
a((F1064.4432373046875
F249.92579650878906
tF8.6440973281860352
F135.244140625
F0.033122893422842026
I13369601
I-1
tp232
a((F1064.4432373046875
F249.92579650878906
tF8.6440973281860352
F19.209442138671875
F0.033122893422842026
I13369601
I-1
tp233
a((F1296.3204345703125
F250.54103088378906
tF8.974726676940918
F85.87103271484375
F0.034833747893571854
I16122113
I-1
tp234
a((F350.74688720703125
F253.83059692382812
tF8.4514760971069336
F110.97894287109375
F0.030802961438894272
I11731201
I-1
tp235
a((F385.60693359375
F254.94293212890625
tF7.632239818572998
F269.37710571289062
F0.029726039618253708
I4391169
I-1
tp236
a((F385.60693359375
F254.94293212890625
tF7.632239818572998
F90.079071044921875
F0.029726039618253708
I4391169
I-1
tp237
a((F1017.7225341796875
F257.33810424804688
tF8.1352567672729492
F173.85430908203125
F0.038117602467536926
I8978689
I-1
tp238
a((F1017.7225341796875
F257.33810424804688
tF8.1352567672729492
F11.00341796875
F0.038117602467536926
I8978689
I-1
tp239
a((F863.1658935546875
F15.728065490722656
tF10.301563262939453
F259.27413940429688
F0.020334014669060707
I9372161
I-1
tp240
a((F820.11004638671875
F29.509859085083008
tF10.803767204284668
F239.11624145507812
F0.018129440024495125
I12780033
I-1
tp241
a((F1255.726806640625
F30.482275009155273
tF10.639034271240234
F3.6678466796875
F0.016842292621731758
I11665921
I-1
tp242
a((F1585.4051513671875
F47.242927551269531
tF11.09465503692627
F324.20626831054688
F0.039625085890293121
I14746113
I-1
tp243
a((F1585.4051513671875
F47.242927551269531
tF11.09465503692627
F195.0460205078125
F0.039625085890293121
I14746113
I-1
tp244
a((F1600.271484375
F50.506320953369141
tF9.204676628112793
F323.47674560546875
F0.026420779526233673
I1245697
I-1
tp245
a((F1570.9537353515625
F52.766590118408203
tF9.7584218978881836
F287.3182373046875
F0.025122709572315216
I5440001
I-1
tp246
a((F1570.9537353515625
F52.766590118408203
tF9.7584218978881836
F197.48808288574219
F0.025122709572315216
I5440001
I-1
tp247
a((F569.4642333984375
F59.431926727294922
tF10.570004463195801
F0.13458251953125
F0.020255494862794876
I11207169
I-1
tp248
a((F831.07135009765625
F60.565982818603516
tF10.889583587646484
F75.915069580078125
F0.033434789627790451
I13369857
I-1
tp249
a((F1611.2437744140625
F63.120964050292969
tF10.02826976776123
F72.732147216796875
F0.03934493288397789
I7406081
I-1
tp250
a((F1294.9227294921875
F71.058937072753906
tF9.8374700546264648
F210.55250549316406
F0.016704356297850609
I6029825
I-1
tp251
a((F1349.1802978515625
F69.690200805664062
tF10.856335639953613
F293.67105102539062
F0.039241127669811249
I13173249
I-1
tp252
a((F1331.151611328125
F79.189674377441406
tF9.4910545349121094
F275.8795166015625
F0.040031071752309799
I3408385
I-1
tp253
a((F166.61135864257812
F89.978050231933594
tF11.193063735961914
F193.11196899414062
F0.032815206795930862
I15335937
I-1
tp254
a((F422.32150268554688
F92.962127685546875
tF10.660869598388672
F181.5740966796875
F0.016798237338662148
I11862529
I-1
tp255
a((F930.83697509765625
F94.354324340820312
tF12.072386741638184
F170.86752319335938
F0.017137473449110985
I4129537
I-1
tp256
a((F963.96502685546875
F104.30460357666016
tF9.1791257858276367
F359.67672729492188
F0.020920787006616592
I1049089
I-1
tp257
a((F1332.0076904296875
F106.74679565429688
tF9.089055061340332
F100.6275634765625
F0.038476999849081039
I328193
I-1
tp258
a((F1611.26904296875
F108.86948394775391
tF10.87115478515625
F279.83502197265625
F0.040053211152553558
I13238785
I-1
tp259
a((F929.8543701171875
F114.80546569824219
tF10.577422142028809
F189.78753662109375
F0.018399301916360855
I11272705
I-1
tp260
a((F657.97540283203125
F116.16246032714844
tF10.135584831237793
F248.92800903320312
F0.018084589391946793
I8192513
I-1
tp261
a((F1308.0770263671875
F115.15191650390625
tF10.572207450866699
F109.75543212890625
F0.038287617266178131
I11207169
I-1
tp262
a((F1360.708740234375
F122.63151550292969
tF11.93921947479248
F170.63896179199219
F0.03077792190015316
I3343105
I-1
tp263
a((F475.380859375
F121.15634918212891
tF9.6682538986206055
F220.10488891601562
F0.019869627431035042
I4784641
I-1
tp264
a((F959.64727783203125
F123.78946685791016
tF10.440496444702148
F15.48919677734375
F0.020104380324482918
I10355201
I-1
tp265
a((F1394.306640625
F128.61280822753906
tF10.914762496948242
F87.6201171875
F0.029653135687112808
I13566465
I-1
tp266
a((F1394.306640625
F128.61280822753906
tF10.914762496948242
F17.8087158203125
F0.029653135687112808
I13566465
I-1
tp267
a((F1484.79638671875
F127.63915252685547
tF10.234604835510254
F83.13763427734375
F0.01510700024664402
I8913409
I-1
tp268
a((F127.58291625976562
F133.55377197265625
tF9.3017902374267578
F164.75473022460938
F0.025847902521491051
I1966593
I-1
tp269
a((F148.91038513183594
F143.59712219238281
tF9.4140157699584961
F86.56817626953125
F0.026624239981174469
I2818561
I-1
tp270
a((F513.78106689453125
F147.48320007324219
tF9.2262277603149414
F270.94955444335938
F0.017281645908951759
I1376769
I-1
tp271
a((F841.423828125
F149.52769470214844
tF10.328028678894043
F310.0074462890625
F0.016882866621017456
I9568769
I-1
tp272
a((F451.7734375
F153.62248229980469
tF11.179133415222168
F218.06707763671875
F0.018594944849610329
I15270401
I-1
tp273
a((F649.7484130859375
F159.25666809082031
tF10.119501113891602
F140.82136535644531
F0.01820736937224865
I8061441
I-1
tp274
a((F121.10402679443359
F169.86351013183594
tF11.045645713806152
F224.70083618164062
F0.037412036210298538
I14418433
I-1
tp275
a((F121.10402679443359
F169.86351013183594
tF11.045645713806152
F9.0736083984375
F0.037412036210298538
I14418433
I-1
tp276
a((F133.82626342773438
F172.86068725585938
tF9.9837369918823242
F10.1357421875
F0.020207496359944344
I7078401
I-1
tp277
a((F96.874824523925781
F183.96542358398438
tF10.563578605651855
F270.35525512695312
F0.028267711400985718
I11207169
I-1
tp278
a((F120.65670013427734
F192.4847412109375
tF9.547205924987793
F332.43157958984375
F0.026725266128778458
I3867137
I-1
tp279
a((F103.29424285888672
F196.49462890625
tF9.4993276596069336
F221.93759155273438
F0.042451202869415283
I3473921
I-1
tp280
a((F682.6348876953125
F202.31141662597656
tF10.629428863525391
F90.455352783203125
F0.018022015690803528
I11600385
I-1
tp281
a((F1610.349853515625
F206.81478881835938
tF10.642938613891602
F260.137939453125
F0.032134801149368286
I11731457
I-1
tp282
a((F1610.349853515625
F206.81478881835938
tF10.642938613891602
F190.33786010742188
F0.032134801149368286
I11731457
I-1
tp283
a((F358.80532836914062
F209.89854431152344
tF9.8054828643798828
F72.86981201171875
F0.020718289539217949
I5767681
I-1
tp284
a((F1424.8223876953125
F211.78236389160156
tF10.33559513092041
F193.06887817382812
F0.030783003196120262
I9568769
I-1
tp285
a((F1359.0714111328125
F216.07069396972656
tF10.764543533325195
F319.1885986328125
F0.03724130243062973
I12517889
I-1
tp286
a((F1359.0714111328125
F216.07069396972656
tF10.764543533325195
F162.16886901855469
F0.03724130243062973
I12517889
I-1
tp287
a((F1273.8353271484375
F215.716064453125
tF10.28617000579834
F265.15472412109375
F0.032269950956106186
I9241089
I-1
tp288
a((F1273.8353271484375
F215.716064453125
tF10.28617000579834
F187.33314514160156
F0.032269950956106186
I9241089
I-1
tp289
a((F1208.6475830078125
F218.50611877441406
tF11.53884220123291
F260.75067138671875
F0.037891514599323273
I852737
I-1
tp290
a((F1208.6475830078125
F218.50611877441406
tF11.53884220123291
F189.42819213867188
F0.037891514599323273
I852737
I-1
tp291
a((F1391.078857421875
F215.73936462402344
tF9.9202919006347656
F218.47726440429688
F0.03870871290564537
I6619649
I-1
tp292
a((F1391.078857421875
F215.73936462402344
tF9.9202919006347656
F16.882659912109375
F0.03870871290564537
I6619649
I-1
tp293
a((F1237.524169921875
F222.80491638183594
tF10.562436103820801
F313.10501098632812
F0.033078279346227646
I11141633
I-1
tp294
a((F1610.3284912109375
F223.82731628417969
tF12.177300453186035
F179.608642578125
F0.026238918304443359
I4719361
I-1
tp295
a((F894.39654541015625
F225.88175964355469
tF10.371006011962891
F261.91934204101562
F0.035799797624349594
I9830913
I-1
tp296
a((F894.39654541015625
F225.88175964355469
tF10.371006011962891
F186.49490356445312
F0.035799797624349594
I9830913
I-1
tp297
a((F920.1395263671875
F232.99299621582031
tF9.1736774444580078
F336.76605224609375
F0.033017907291650772
I983553
I-1
tp298
a((F920.1395263671875
F232.99299621582031
tF9.1736774444580078
F321.58795166015625
F0.033017907291650772
I983553
I-1
tp299
a((F950.2071533203125
F232.07829284667969
tF9.4559421539306641
F218.60888671875
F0.034745704382658005
I3146241
I-1
tp300
a((F905.42132568359375
F236.78451538085938
tF9.3446187973022461
F288.53680419921875
F0.043032865971326828
I2294273
I-1
tp301
a((F905.42132568359375
F236.78451538085938
tF9.3446187973022461
F67.501953125
F0.043032865971326828
I2294273
I-1
tp302
a((F1305.414306640625
F238.085693359375
tF9.6196813583374023
F356.058837890625
F0.015874408185482025
I4391425
I-1
tp303
a((F1560.984130859375
F239.69911193847656
tF9.4665517807006836
F170.06793212890625
F0.036290679126977921
I3277313
I-1
tp304
a((F1610.639892578125
F240.87356567382812
tF10.800046920776367
F171.59588623046875
F0.031244359910488129
I12780033
I-1
tp305
a((F1481.4156494140625
F242.38456726074219
tF10.089018821716309
F170.19342041015625
F0.03864562138915062
I7864833
I-1
tp306
a((F1481.4156494140625
F242.38456726074219
tF10.089018821716309
F27.4486083984375
F0.03864562138915062
I7864833
I-1
tp307
a((F1424.863037109375
F245.48052978515625
tF11.045415878295898
F172.20565795898438
F0.032135371118783951
I14418433
I-1
tp308
a((F1424.863037109375
F245.48052978515625
tF11.045415878295898
F97.11041259765625
F0.032135371118783951
I14418433
I-1
tp309
a((F1274.05078125
F249.70184326171875
tF10.734192848205566
F171.30082702636719
F0.031457621604204178
I12321281
I-1
tp310
a((F1274.05078125
F249.70184326171875
tF10.734192848205566
F94.56890869140625
F0.031457621604204178
I12321281
I-1
tp311
a((F1129.3741455078125
F251.949951171875
tF9.3864583969116211
F175.58334350585938
F0.03842984139919281
I2621953
I-1
tp312
a((F1129.3741455078125
F251.949951171875
tF9.3864583969116211
F9.42120361328125
F0.03842984139919281
I2621953
I-1
tp313
a((F1052.22314453125
F253.99012756347656
tF9.779383659362793
F172.51664733886719
F0.038913972675800323
I5571073
I-1
tp314
a((F1052.22314453125
F253.99012756347656
tF9.779383659362793
F28.25732421875
F0.038913972675800323
I5571073
I-1
tp315
a((F758.4361572265625
F21.228738784790039
tF9.5107765197753906
F251.05624389648438
F0.016717277467250824
I3604993
I-1
tp316
a((F549.79071044921875
F24.650667190551758
tF12.541110038757324
F266.2783203125
F0.017643053084611893
I6882049
I-1
tp317
a((F690.61383056640625
F27.529170989990234
tF12.865455627441406
F289.86154174804688
F0.018937492743134499
I8717057
I-1
tp318
a((F1556.1400146484375
F62.537235260009766
tF13.546122550964355
F268.99520874023438
F0.039099246263504028
I12452609
I-1
tp319
a((F1518.762939453125
F68.927505493164062
tF11.925674438476562
F310.93875122070312
F0.025604493916034698
I3212033
I-1
tp320
a((F1384.897216796875
F73.782791137695312
tF13.710049629211426
F223.0245361328125
F0.03606921061873436
I13304577
I-1
tp321
a((F1361.74267578125
F84.093040466308594
tF12.65283203125
F207.96896362304688
F0.033613990992307663
I7537409
I-1
tp322
a((F1349.69287109375
F98.500816345214844
tF13.243954658508301
F310.2696533203125
F0.029584873467683792
I10814209
I-1
tp323
a((F1298.160400390625
F99.923332214355469
tF13.022295951843262
F148.85221862792969
F0.025598460808396339
I9634561
I-1
tp324
a((F1532.994140625
F111.23951721191406
tF12.369495391845703
F156.36735534667969
F0.04229261726140976
I5899009
I-1
tp325
a((F1532.994140625
F111.23951721191406
tF12.369495391845703
F8.6715087890625
F0.04229261726140976
I5899009
I-1
tp326
a((F1377.2066650390625
F135.40184020996094
tF13.599169731140137
F168.24456787109375
F0.041922327131032944
I12714753
I-1
tp327
a((F1377.2066650390625
F135.40184020996094
tF13.599169731140137
F26.355743408203125
F0.041922327131032944
I12714753
I-1
tp328
a((F184.28021240234375
F144.91793823242188
tF13.418477058410645
F136.65626525878906
F0.033391762524843216
I11797249
I-1
tp329
a((F1434.9664306640625
F155.45133972167969
tF12.782233238220215
F269.84695434570312
F0.017407990992069244
I8258305
I-1
tp330
a((F1119.498291015625
F176.74620056152344
tF13.808043479919434
F82.745758056640625
F0.030442005023360252
I13828865
I-1
tp331
a((F1119.498291015625
F176.74620056152344
tF13.808043479919434
F5.8951416015625
F0.030442005023360252
I13828865
I-1
tp332
a((F749.210205078125
F201.37812805175781
tF12.058399200439453
F89.678558349609375
F0.017663281410932541
I4064001
I-1
tp333
a((F1222.417236328125
F233.80537414550781
tF13.364221572875977
F288.54598999023438
F0.042974933981895447
I11469569
I-1
tp334
a((F1222.417236328125
F233.80537414550781
tF13.364221572875977
F234.3499755859375
F0.042974933981895447
I11469569
I-1
tp335
a((F1222.417236328125
F233.80537414550781
tF13.364221572875977
F179.94407653808594
F0.042974933981895447
I11469569
I-1
tp336
a((F1222.417236328125
F233.80537414550781
tF13.364221572875977
F67.35980224609375
F0.042974933981895447
I11469569
I-1
tp337
a((F1222.417236328125
F233.80537414550781
tF13.364221572875977
F49.5716552734375
F0.042974933981895447
I11469569
I-1
tp338
a((F1513.242919921875
F237.8388671875
tF14.179461479187012
F2.425994873046875
F0.04066857323050499
I15729409
I-1
tp339
a((F894.23297119140625
F250.0513916015625
tF12.853178977966309
F179.07533264160156
F0.036116871982812881
I8651521
I-1
tp340
a((F1083.44140625
F250.29408264160156
tF13.19366455078125
F4.226654052734375
F0.040285125374794006
I10552065
I-1
tp341
a((F1208.2100830078125
F250.70887756347656
tF12.371952056884766
F175.258056640625
F0.036836490035057068
I5899009
I-1
tp342
a((F1262.599365234375
F33.0550537109375
tF19.018747329711914
F4.27862548828125
F0.017266757786273956
I3604994
I-1
tp343
a((F1606.062255859375
F44.068691253662109
tF15.422255516052246
F306.91622924804688
F0.028577273711562157
I5112066
I-1
tp344
a((F855.88836669921875
F61.133079528808594
tF18.757619857788086
F92.862030029296875
F0.02884179912507534
I2556418
I-1
tp345
a((F1310.8887939453125
F80.130767822265625
tF17.311513900756836
F239.97215270996094
F0.036344654858112335
I13500674
I-1
tp346
a((F1310.8887939453125
F80.130767822265625
tF17.311513900756836
F154.75936889648438
F0.036344654858112335
I13500674
I-1
tp347
a((F198.2076416015625
F87.503944396972656
tF17.229511260986328
F157.8328857421875
F0.041655492037534714
I13107458
I-1
tp348
a((F1075.29833984375
F71.583000183105469
tF23.904478073120117
F318.11102294921875
F0.040308263152837753
I3408642
I-1
tp349
a((F1075.29833984375
F71.583000183105469
tF23.904478073120117
F193.40852355957031
F0.040308263152837753
I3408642
I-1
tp350
a((F1609.0755615234375
F86.157829284667969
tF18.619224548339844
F313.03982543945312
F0.03532390296459198
I2032130
I-1
tp351
a((F1609.0755615234375
F86.157829284667969
tF18.619224548339844
F35.956573486328125
F0.03532390296459198
I2032130
I-1
tp352
a((F1140.5303955078125
F96.165336608886719
tF18.057394027709961
F1.98504638671875
F0.035066183656454086
I16515330
I-1
tp353
a((F469.18548583984375
F103.80767059326172
tF16.89796257019043
F221.3944091796875
F0.039698552340269089
I11731202
I-1
tp354
a((F469.18548583984375
F103.80767059326172
tF16.89796257019043
F6.87847900390625
F0.039698552340269089
I11731202
I-1
tp355
a((F1591.7393798828125
F106.52751159667969
tF17.992040634155273
F160.69816589355469
F0.039180725812911987
I16253186
I-1
tp356
a((F1591.7393798828125
F106.52751159667969
tF17.992040634155273
F108.50958251953125
F0.039180725812911987
I16253186
I-1
tp357
a((F211.13526916503906
F124.60205078125
tF18.199453353881836
F172.85345458984375
F0.041634228080511093
I393730
I-1
tp358
a((F144.71327209472656
F127.95430755615234
tF16.355283737182617
F250.63006591796875
F0.042159397155046463
I9371906
I-1
tp359
a((F144.71327209472656
F127.95430755615234
tF16.355283737182617
F79.28631591796875
F0.042159397155046463
I9371906
I-1
tp360
a((F1607.2647705078125
F130.836181640625
tF16.483394622802734
F229.57771301269531
F0.029871437698602676
I9961730
I-1
tp361
a((F1320.1680908203125
F141.56315612792969
tF20.757135391235352
F296.20697021484375
F0.029670139774680138
I9896450
I-1
tp362
a((F1320.1680908203125
F141.56315612792969
tF20.757135391235352
F89.45941162109375
F0.029670139774680138
I9896450
I-1
tp363
a((F606.5836181640625
F208.10838317871094
tF15.464604377746582
F88.696197509765625
F0.017838405445218086
I5308674
I-1
tp364
a((F432.99432373046875
F211.928466796875
tF15.19316577911377
F89.20635986328125
F0.017032841220498085
I4063490
I-1
tp365
a((F1560.341796875
F210.26861572265625
tF16.033239364624023
F155.44953918457031
F0.037062056362628937
I7930114
I-1
tp366
a((F1560.341796875
F210.26861572265625
tF16.033239364624023
F29.9569091796875
F0.037062056362628937
I7930114
I-1
tp367
a((F1129.9951171875
F221.77381896972656
tF16.19261360168457
F267.61489868164062
F0.038720276206731796
I8651010
I-1
tp368
a((F1129.9951171875
F221.77381896972656
tF16.19261360168457
F156.73234558105469
F0.038720276206731796
I8651010
I-1
tp369
a((F1484.9534912109375
F218.74581909179688
tF16.067609786987305
F297.53790283203125
F0.041605554521083832
I8061186
I-1
tp370
a((F1484.9534912109375
F218.74581909179688
tF16.067609786987305
F184.42483520507812
F0.041605554521083832
I8061186
I-1
tp371
a((F1056.4793701171875
F230.86430358886719
tF16.0035400390625
F296.71072387695312
F0.042641393840312958
I7799042
I-1
tp372
a((F1056.4793701171875
F230.86430358886719
tF16.0035400390625
F185.22355651855469
F0.042641393840312958
I7799042
I-1
tp373
a((F1404.81103515625
F232.0135498046875
tF16.62568473815918
F173.70516967773438
F0.024750513955950737
I10551554
I-1
tp374
a((F1404.81103515625
F232.0135498046875
tF16.62568473815918
F24.037200927734375
F0.024750513955950737
I10551554
I-1
tp375
a((F970.58953857421875
F56.771984100341797
tF20.563968658447266
F186.77822875976562
F0.038538072258234024
I9241090
I-1
tp376
a((F1589.6448974609375
F61.6846923828125
tF20.342304229736328
F298.78298950195312
F0.036143045872449875
I8454658
I-1
tp377
a((F1589.6448974609375
F61.6846923828125
tF20.342304229736328
F233.39013671875
F0.036143045872449875
I8454658
I-1
tp378
a((F788.9266357421875
F74.09503173828125
tF23.057882308959961
F356.40103149414062
F0.040501780807971954
I787202
I-1
tp379
a((F588.3551025390625
F80.653739929199219
tF21.276710510253906
F0.40625
F0.045554127544164658
I11665922
I-1
tp380
a((F1480.697021484375
F88.86529541015625
tF18.601329803466797
F359.91714477539062
F0.049765650182962418
I1966594
I-1
tp381
a((F1480.697021484375
F88.86529541015625
tF18.601329803466797
F268.08535766601562
F0.049765650182962418
I1966594
I-1
tp382
a((F1480.697021484375
F88.86529541015625
tF18.601329803466797
F254.69024658203125
F0.049765650182962418
I1966594
I-1
tp383
a((F1480.697021484375
F88.86529541015625
tF18.601329803466797
F177.08717346191406
F0.049765650182962418
I1966594
I-1
tp384
a((F1480.697021484375
F88.86529541015625
tF18.601329803466797
F97.70806884765625
F0.049765650182962418
I1966594
I-1
tp385
a((F1559.124267578125
F89.130516052246094
tF21.596996307373047
F162.06138610839844
F0.034051422029733658
I12780034
I-1
tp386
a((F1559.124267578125
F89.130516052246094
tF21.596996307373047
F18.61456298828125
F0.034051422029733658
I12780034
I-1
tp387
a((F1403.664794921875
F91.075592041015625
tF18.498775482177734
F330.65948486328125
F0.050630547106266022
I1573378
I-1
tp388
a((F1403.664794921875
F91.075592041015625
tF18.498775482177734
F232.2222900390625
F0.050630547106266022
I1573378
I-1
tp389
a((F1403.664794921875
F91.075592041015625
tF18.498775482177734
F190.81289672851562
F0.050630547106266022
I1573378
I-1
tp390
a((F1403.664794921875
F91.075592041015625
tF18.498775482177734
F65.852752685546875
F0.050630547106266022
I1573378
I-1
tp391
a((F614.04998779296875
F97.887275695800781
tF21.423938751220703
F339.04458618164062
F0.03317435085773468
I12190210
I-1
tp392
a((F499.71560668945312
F104.08816528320312
tF21.91960334777832
F220.31828308105469
F0.032621640712022781
I13828610
I-1
tp393
a((F1382.0379638671875
F115.69026947021484
tF21.305395126342773
F53.002593994140625
F0.032679382711648941
I11796994
I-1
tp394
a((F518.36883544921875
F128.21315002441406
tF18.647275924682617
F184.19784545898438
F0.055830668658018112
I2163202
I-1
tp395
a((F518.36883544921875
F128.21315002441406
tF18.647275924682617
F37.248077392578125
F0.055830668658018112
I2163202
I-1
tp396
a((F1035.75830078125
F136.71076965332031
tF24.304126739501953
F139.90815734863281
F0.04171297699213028
I4588290
I-1
tp397
a((F1035.75830078125
F136.71076965332031
tF24.304126739501953
F9.7982177734375
F0.04171297699213028
I4588290
I-1
tp398
a((F422.62142944335938
F159.77177429199219
tF20.687292098999023
F208.36038208007812
F0.038992572575807571
I9634306
I-1
tp399
a((F422.62142944335938
F159.77177429199219
tF20.687292098999023
F78.51007080078125
F0.038992572575807571
I9634306
I-1
tp400
a((F505.23211669921875
F158.540283203125
tF20.489936828613281
F89.5155029296875
F0.026011615991592407
I8978946
I-1
tp401
a((F638.880615234375
F171.89720153808594
tF17.856962203979492
F137.20223999023438
F0.039178580045700073
I15728898
I-1
tp402
a((F80.04620361328125
F190.38067626953125
tF21.733877182006836
F132.85394287109375
F0.038196496665477753
I13238786
I-1
tp403
a((F1591.810546875
F190.99882507324219
tF21.608808517456055
F68.993255615234375
F0.02539445273578167
I12780034
I-1
tp404
a((F1410.5235595703125
F197.02531433105469
tF19.888622283935547
F90.44091796875
F0.028183756396174431
I6816258
I-1
tp405
a((F1464.523193359375
F196.99192810058594
tF21.083707809448242
F89.316558837890625
F0.028090346604585648
I11010562
I-1
tp406
a((F1499.74609375
F196.26393127441406
tF20.241220474243164
F89.64251708984375
F0.029941784217953682
I8061442
I-1
tp407
a((F1375.074462890625
F199.38673400878906
tF20.006267547607422
F90.40533447265625
F0.028437849134206772
I7209474
I-1
tp408
a((F1537.853271484375
F227.70053100585938
tF18.845525741577148
F151.88429260253906
F0.022624311968684196
I2884098
I-1
tp409
a((F1537.853271484375
F227.70053100585938
tF18.845525741577148
F7.236358642578125
F0.022624311968684196
I2884098
I-1
tp410
a((F1108.052490234375
F239.59745788574219
tF18.773427963256836
F156.1190185546875
F0.024169888347387314
I2621954
I-1
tp411
a((F1108.052490234375
F239.59745788574219
tF18.773427963256836
F5.2943115234375
F0.024169888347387314
I2621954
I-1
tp412
a((F1230.2823486328125
F30.677288055419922
tF25.11235237121582
F72.582000732421875
F0.047403961420059204
I6947586
I-1
tp413
a((F1561.373291015625
F35.305057525634766
tF24.426742553710938
F252.45025634765625
F0.022703122347593307
I4981506
I-1
tp414
a((F1313.77734375
F43.282367706298828
tF25.160655975341797
F256.52853393554688
F0.019634794443845749
I7078658
I-1
tp415
a((F350.833251953125
F49.884342193603516
tF25.039213180541992
F264.38833618164062
F0.047090265899896622
I6750978
I-1
tp416
a((F615.96063232421875
F47.931053161621094
tF28.083555221557617
F264.26065063476562
F0.041242856532335281
I15074050
I-1
tp417
a((F757.2933349609375
F47.646896362304688
tF27.699789047241211
F353.1622314453125
F0.046683937311172485
I14091010
I-1
tp418
a((F757.2933349609375
F47.646896362304688
tF27.699789047241211
F226.79579162597656
F0.046683937311172485
I14091010
I-1
tp419
a((F651.34033203125
F89.952903747558594
tF28.090539932250977
F330.1400146484375
F0.060084439814090729
I15074050
I-1
tp420
a((F651.34033203125
F89.952903747558594
tF28.090539932250977
F265.99008178710938
F0.060084439814090729
I15074050
I-1
tp421
a((F651.34033203125
F89.952903747558594
tF28.090539932250977
F234.64129638671875
F0.060084439814090729
I15074050
I-1
tp422
a((F651.34033203125
F89.952903747558594
tF28.090539932250977
F187.90907287597656
F0.060084439814090729
I15074050
I-1
tp423
a((F651.34033203125
F89.952903747558594
tF28.090539932250977
F146.91961669921875
F0.060084439814090729
I15074050
I-1
tp424
a((F651.34033203125
F89.952903747558594
tF28.090539932250977
F93.4171142578125
F0.060084439814090729
I15074050
I-1
tp425
a((F396.13040161132812
F93.125686645507812
tF28.157049179077148
F333.07388305664062
F0.059622038155794144
I15270658
I-1
tp426
a((F396.13040161132812
F93.125686645507812
tF28.157049179077148
F179.96305847167969
F0.059622038155794144
I15270658
I-1
tp427
a((F816.0782470703125
F95.063400268554688
tF26.74561882019043
F359.22586059570312
F0.03869127482175827
I11535106
I-1
tp428
a((F612.5853271484375
F100.84146881103516
tF22.87092399597168
F325.8106689453125
F0.032805591821670532
I197378
I-1
tp429
a((F612.5853271484375
F100.84146881103516
tF22.87092399597168
F221.45065307617188
F0.032805591821670532
I197378
I-1
tp430
a((F690.49090576171875
F104.87039947509766
tF27.007541656494141
F40.26202392578125
F0.032425787299871445
I12256002
I-1
tp431
a((F1192.8121337890625
F133.28256225585938
tF24.640518188476562
F121.07806396484375
F0.045265734195709229
I5571330
I-1
tp432
a((F1346.0184326171875
F143.12086486816406
tF27.467782974243164
F92.636962890625
F0.033221501857042313
I13435650
I-1
tp433
a((F1405.75048828125
F143.2886962890625
tF25.306886672973633
F271.09390258789062
F0.03175073117017746
I7537410
I-1
tp434
a((F1405.75048828125
F143.2886962890625
tF25.306886672973633
F63.1944580078125
F0.03175073117017746
I7537410
I-1
tp435
a((F1167.2257080078125
F166.51315307617188
tF27.232009887695312
F96.34661865234375
F0.043346021324396133
I12845826
I-1
tp436
a((F607.7149658203125
F181.06813049316406
tF25.702459335327148
F88.009796142578125
F0.040884193032979965
I8651522
I-1
tp437
a((F607.7149658203125
F181.06813049316406
tF25.702459335327148
F36.46063232421875
F0.040884193032979965
I8651522
I-1
tp438
a((F438.93231201171875
F185.73316955566406
tF25.21580696105957
F202.13998413085938
F0.046345613896846771
I7275266
I-1
tp439
a((F438.93231201171875
F185.73316955566406
tF25.21580696105957
F64.064605712890625
F0.046345613896846771
I7275266
I-1
tp440
a((F548.89398193359375
F182.49089050292969
tF26.463907241821289
F127.27481079101562
F0.037094779312610626
I10748674
I-1
tp441
a((F548.89398193359375
F182.49089050292969
tF26.463907241821289
F86.913818359375
F0.037094779312610626
I10748674
I-1
tp442
a((F997.2418212890625
F207.25384521484375
tF22.866094589233398
F90.577911376953125
F0.023584483191370964
I197378
I-1
tp443
a((F168.6744384765625
F212.00752258300781
tF24.778345108032227
F48.57733154296875
F0.040325399488210678
I5964546
I-1
tp444
a((F1615.2286376953125
F226.91253662109375
tF24.943080902099609
F154.19961547851562
F0.032691415399312973
I6488834
I-1
tp445
a((F1431.572021484375
F231.93536376953125
tF25.570085525512695
F143.5997314453125
F0.033723641186952591
I8258306
I-1
tp446
a((F902.03961181640625
F237.34278869628906
tF26.869491577148438
F189.25820922851562
F0.029328493401408195
I11862786
I-1
tp447
a((F1009.294189453125
F42.189876556396484
tF33.946880340576172
F314.96002197265625
F0.042015921324491501
I12058883
I-1
tp448
a((F1516.280517578125
F42.550014495849609
tF30.895984649658203
F265.2965087890625
F0.023720322176814079
I5243139
I-1
tp449
a((F621.6162109375
F47.98040771484375
tF30.50007438659668
F264.9661865234375
F0.040806937962770462
I4325635
I-1
tp450
a((F1367.5399169921875
F47.119720458984375
tF31.801788330078125
F260.0030517578125
F0.022097289562225342
I7340291
I-1
tp451
a((F1441.4681396484375
F45.197559356689453
tF31.222089767456055
F269.30133056640625
F0.023468989878892899
I6029571
I-1
tp452
a((F180.65821838378906
F55.290443420410156
tF33.521648406982422
F315.91064453125
F0.044660419225692749
I11141379
I-1
tp453
a((F432.07553100585938
F64.257110595703125
tF35.445526123046875
F303.90582275390625
F0.042268972843885422
I15204611
I-1
tp454
a((F1178.1002197265625
F86.578407287597656
tF31.682357788085938
F123.39285278320312
F0.032848529517650604
I7078147
I-1
tp455
a((F1442.2451171875
F89.527381896972656
tF34.067989349365234
F269.33181762695312
F0.024382982403039932
I12321027
I-1
tp456
a((F1518.8133544921875
F88.886802673339844
tF35.995929718017578
F268.93756103515625
F0.026121733710169792
I16318723
I-1
tp457
a((F1518.8133544921875
F88.886802673339844
tF35.995929718017578
F80.600189208984375
F0.026121733710169792
I16318723
I-1
tp458
a((F75.838348388671875
F94.516105651855469
tF33.479843139648438
F229.469970703125
F0.046960290521383286
I11075843
I-1
tp459
a((F1154.336669921875
F123.07347869873047
tF35.593120574951172
F1.144287109375
F0.045136373490095139
I15466755
I-1
tp460
a((F1154.336669921875
F123.07347869873047
tF35.593120574951172
F122.53761291503906
F0.045136373490095139
I15466755
I-1
tp461
a((F43.188339233398438
F135.31877136230469
tF36.100051879882812
F218.96534729003906
F0.049126848578453064
I16515331
I-1
tp462
a((F43.188339233398438
F135.31877136230469
tF36.100051879882812
F144.83840942382812
F0.049126848578453064
I16515331
I-1
tp463
a((F1440.557861328125
F135.91986083984375
tF33.081787109375
F270.20462036132812
F0.030031058937311172
I10158339
I-1
tp464
a((F1440.557861328125
F135.91986083984375
tF33.081787109375
F83.147979736328125
F0.030031058937311172
I10158339
I-1
tp465
a((F1508.4151611328125
F136.66093444824219
tF29.591278076171875
F269.73004150390625
F0.026507657021284103
I2097411
I-1
tp466
a((F1508.4151611328125
F136.66093444824219
tF29.591278076171875
F81.17401123046875
F0.026507657021284103
I2097411
I-1
tp467
a((F708.50628662109375
F144.15521240234375
tF30.566274642944336
F177.439697265625
F0.052349992096424103
I4456707
I-1
tp468
a((F479.0726318359375
F151.50341796875
tF34.471553802490234
F75.79931640625
F0.030679658055305481
I13172995
I-1
tp469
a((F215.50291442871094
F161.22120666503906
tF34.399608612060547
F48.12542724609375
F0.04368264228105545
I13041923
I-1
tp470
a((F398.48223876953125
F171.20608520507812
tF30.033187866210938
F75.6285400390625
F0.041656989604234695
I3211523
I-1
tp471
a((F398.48223876953125
F171.20608520507812
tF30.033187866210938
F40.2825927734375
F0.041656989604234695
I3211523
I-1
tp472
a((F750.58758544921875
F171.71855163574219
tF30.534961700439453
F177.70393371582031
F0.046493764966726303
I4391171
I-1
tp473
a((F750.58758544921875
F171.71855163574219
tF30.534961700439453
F28.95367431640625
F0.046493764966726303
I4391171
I-1
tp474
a((F1001.1746215820312
F166.92457580566406
tF29.418527603149414
F18.737213134765625
F0.046940602362155914
I1704195
I-1
tp475
a((F159.01899719238281
F173.31155395507812
tF33.023723602294922
F279.80270385742188
F0.042814284563064575
I10092803
I-1
tp476
a((F348.56768798828125
F180.86782836914062
tF33.374858856201172
F175.93733215332031
F0.048539470881223679
I10813699
I-1
tp477
a((F348.56768798828125
F180.86782836914062
tF33.374858856201172
F36.93280029296875
F0.048539470881223679
I10813699
I-1
tp478
a((F1263.896484375
F182.85691833496094
tF38.550392150878906
F47.3577880859375
F0.027517033740878105
I4522499
I-1
tp479
a((F1177.05810546875
F208.83268737792969
tF32.483974456787109
F96.1278076171875
F0.025203390046954155
I8847619
I-1
tp480
a((F1326.8109130859375
F210.41056823730469
tF33.616313934326172
F111.32489013671875
F0.019786564633250237
I11337987
I-1
tp481
a((F577.98565673828125
F216.36726379394531
tF33.541110992431641
F88.83831787109375
F0.024340074509382248
I11206915
I-1
tp482
a((F721.94110107421875
F213.9395751953125
tF33.560234069824219
F91.3489990234375
F0.021355196833610535
I11206915
I-1
tp483
a((F864.6544189453125
F215.29170227050781
tF31.778863906860352
F99.76190185546875
F0.025700956583023071
I7274755
I-1
tp484
a((F543.55352783203125
F64.423744201660156
tF40.625728607177734
F229.38189697265625
F0.042005419731140137
I8323587
I-1
tp485
a((F1236.18994140625
F127.5430908203125
tF38.126235961914062
F314.93411254882812
F0.037298239767551422
I3736067
I-1
tp486
a((F1562.2679443359375
F127.2899169921875
tF37.067409515380859
F265.84097290039062
F0.026457022875547409
I1704451
I-1
tp487
a((F1562.2679443359375
F127.2899169921875
tF37.067409515380859
F58.66851806640625
F0.026457022875547409
I1704451
I-1
tp488
a((F952.41229248046875
F190.31216430664062
tF38.700092315673828
F60.8345947265625
F0.031307049095630646
I4850179
I-1
tp489
a((F495.5870361328125
F202.30136108398438
tF41.794208526611328
F105.61309814453125
F0.031982734799385071
I10355203
I-1
tp490
a((F495.5870361328125
F202.30136108398438
tF41.794208526611328
F81.010101318359375
F0.031982734799385071
I10355203
I-1
tp491
a((F796.420166015625
F192.476318359375
tF38.907665252685547
F116.72514343261719
F0.028403777629137039
I5177859
I-1
tp492
a((F644.211669921875
F205.95553588867188
tF38.265487670898438
F83.54571533203125
F0.026463054120540619
I3998211
I-1
tp493
a((F878.601806640625
F106.88790130615234
tF52.002418518066406
F339.4013671875
F0.04964037612080574
I9503491
I-1
tp494
a((F878.601806640625
F106.88790130615234
tF52.002418518066406
F180.40061950683594
F0.04964037612080574
I9503491
I-1
tp495
a((F355.1478271484375
F144.78707885742188
tF48.018936157226562
F188.19322204589844
F0.044602975249290466
I3736323
I-1
tp496
a((F774.4700927734375
F115.62884521484375
tF84.201873779296875
F281.9013671875
F0.023987676948308945
I10945028
I-1
tp497
a((F774.4700927734375
F115.62884521484375
tF84.201873779296875
F88.411102294921875
F0.023987676948308945
I10945028
I-1
tp498
a((F394.81576538085938
F113.36677551269531
tF99.153152465820312
F102.97604370117188
F0.029876122251152992
I6030084
I-1
tp499
a((F554.03350830078125
F121.82061767578125
tF99.983665466308594
F93.17431640625
F0.029436545446515083
I6619908
I-1
tp500
a.