(lp1
((F1159.4356689453125
F15.358141899108887
tF2.1658225059509277
F241.59146118164062
F0.020563177764415741
I13566463
I-1
tp2
a((F1158.9246826171875
F18.653556823730469
tF2.0465259552001953
F242.6351318359375
F0.025550339370965958
I9437695
I-1
tp3
a((F1157.9097900390625
F24.409650802612305
tF2.0780324935913086
F213.62226867675781
F0.018033919855952263
I10551807
I-1
tp4
a((F1157.9097900390625
F24.409650802612305
tF2.0780324935913086
F148.72268676757812
F0.018033919855952263
I10551807
I-1
tp5
a((F1177.5101318359375
F24.343696594238281
tF1.9360809326171875
F284.4420166015625
F0.022551994770765305
I5439999
I-1
tp6
a((F218.85195922851562
F29.714883804321289
tF1.9487603902816772
F247.19575500488281
F0.017116095870733261
I5898751
I-1
tp7
a((F1171.6728515625
F30.603395462036133
tF1.8259788751602173
F73.5738525390625
F0.016267871484160423
I1180159
I-1
tp8
a((F29.133342742919922
F37.677982330322266
tF2.0297799110412598
F219.07359313964844
F0.013358075171709061
I8847871
I-1
tp9
a((F96.902130126953125
F46.6573486328125
tF1.9452997446060181
F278.88058471679688
F0.019893541932106018
I5767679
I-1
tp10
a((F260.99349975585938
F49.826164245605469
tF2.1786723136901855
F220.69960021972656
F0.015122296288609505
I13959679
I-1
tp11
a((F260.99349975585938
F49.826164245605469
tF2.1786723136901855
F187.2203369140625
F0.015122296288609505
I13959679
I-1
tp12
a((F99.900672912597656
F58.052669525146484
tF2.5575921535491943
F19.48248291015625
F0.016155770048499107
I8848127
I-1
tp13
a((F187.85235595703125
F71.9969482421875
tF1.927342414855957
F69.57177734375
F0.014153764583170414
I5112319
I-1
tp14
a((F507.44778442382812
F84.574882507324219
tF1.9669567346572876
F178.42958068847656
F0.013487545773386955
I6554111
I-1
tp15
a((F561.23712158203125
F86.53021240234375
tF1.9944067001342773
F295.47210693359375
F0.018055230379104614
I7602687
I-1
tp16
a((F345.41024780273438
F88.128395080566406
tF2.0850198268890381
F255.78451538085938
F0.024631164968013763
I10813951
I-1
tp17
a((F345.41024780273438
F88.128395080566406
tF2.0850198268890381
F189.37841796875
F0.024631164968013763
I10813951
I-1
tp18
a((F459.1275634765625
F88.120811462402344
tF2.1020021438598633
F8.280181884765625
F0.020044570788741112
I11403775
I-1
tp19
a((F328.90542602539062
F90.476593017578125
tF2.5681829452514648
F310.0660400390625
F0.014355743303894997
I9175807
I-1
tp20
a((F231.41123962402344
F92.754997253417969
tF1.9713410139083862
F309.87057495117188
F0.015729865059256554
I6750719
I-1
tp21
a((F451.89877319335938
F93.374000549316406
tF2.1437830924987793
F179.11430358886719
F0.013603664003312588
I12780031
I-1
tp22
a((F178.41105651855469
F94.550308227539062
tF2.2205448150634766
F307.14349365234375
F0.025456739589571953
I15335935
I-1
tp23
a((F529.77490234375
F94.42431640625
tF2.1676843166351318
F178.83491516113281
F0.032904535531997681
I13631999
I-1
tp24
a((F384.98849487304688
F96.637046813964844
tF2.2222936153411865
F171.01657104492188
F0.026190686970949173
I15401471
I-1
tp25
a((F384.98849487304688
F96.637046813964844
tF2.2222936153411865
F100.27877807617188
F0.026190686970949173
I15401471
I-1
tp26
a((F525.41845703125
F98.583930969238281
tF1.8897308111190796
F19.827239990234375
F0.02243286557495594
I3670527
I-1
tp27
a((F565.091796875
F100.53758239746094
tF2.0818023681640625
F0.8536376953125
F0.020152261480689049
I10682879
I-1
tp28
a((F290.0006103515625
F102.66267395019531
tF1.9930590391159058
F273.9556884765625
F0.021900415420532227
I7537151
I-1
tp29
a((F227.86431884765625
F104.70138549804688
tF2.4075639247894287
F157.75199890136719
F0.015644533559679985
I4457215
I-1
tp30
a((F385.220458984375
F107.92594146728516
tF1.9568766355514526
F180.23443603515625
F0.016309285536408424
I6226431
I-1
tp31
a((F507.43624877929688
F109.57139587402344
tF2.1005661487579346
F178.97500610351562
F0.018066216260194778
I11338239
I-1
tp32
a((F345.81301879882812
F109.83006286621094
tF1.8853391408920288
F178.07882690429688
F0.016514817252755165
I3539455
I-1
tp33
a((F568.05340576171875
F109.96862030029297
tF2.1506364345550537
F355.7294921875
F0.022842051461338997
I13042175
I-1
tp34
a((F568.05340576171875
F109.96862030029297
tF2.1506364345550537
F327.80792236328125
F0.022842051461338997
I13042175
I-1
tp35
a((F536.65692138671875
F112.27273559570312
tF1.8707245588302612
F356.32925415039062
F0.016998935490846634
I2949631
I-1
tp36
a((F399.84271240234375
F114.30179595947266
tF1.8471815586090088
F290.17800903320312
F0.015878193080425262
I2032127
I-1
tp37
a((F245.28968811035156
F114.97380828857422
tF2.0298395156860352
F179.34571838378906
F0.013376220129430294
I8847871
I-1
tp38
a((F285.69900512695312
F115.17165374755859
tF1.884365439414978
F317.4012451171875
F0.024009224027395248
I3473919
I-1
tp39
a((F558.43017578125
F114.9197998046875
tF1.9475347995758057
F79.793365478515625
F0.023851420730352402
I5833215
I-1
tp40
a((F570.05517578125
F115.28498077392578
tF2.057166576385498
F6.863433837890625
F0.015432720072567463
I9830911
I-1
tp41
a((F536.8345947265625
F116.42478942871094
tF1.8337305784225464
F11.72991943359375
F0.0145322410389781
I1507839
I-1
tp42
a((F29.976713180541992
F120.85906982421875
tF1.838719367980957
F1.83953857421875
F0.018442327156662941
I1704447
I-1
tp43
a((F72.298622131347656
F123.15671539306641
tF1.9940824508666992
F198.4820556640625
F0.014108276925981045
I7602687
I-1
tp44
a((F176.61323547363281
F134.89862060546875
tF2.2175354957580566
F173.89985656738281
F0.02548007108271122
I15270399
I-1
tp45
a((F176.61323547363281
F134.89862060546875
tF2.2175354957580566
F15.017822265625
F0.02548007108271122
I15270399
I-1
tp46
a((F1174.332275390625
F4.9660143852233887
tF2.2923409938812256
F274.38525390625
F0.018727824091911316
I918271
I-1
tp47
a((F1159.4376220703125
F27.453420639038086
tF2.2800819873809814
F203.43782043457031
F0.021677505224943161
I525055
I-1
tp48
a((F231.43011474609375
F28.754743576049805
tF1.90814208984375
F291.1463623046875
F0.014332830905914307
I4391423
I-1
tp49
a((F88.954719543457031
F30.730655670166016
tF2.3170261383056641
F259.36312866210938
F0.014435892924666405
I1704703
I-1
tp50
a((F251.36488342285156
F34.356643676757812
tF2.3019392490386963
F0.79449462890625
F0.013347800821065903
I1245951
I-1
tp51
a((F1166.450439453125
F42.500881195068359
tF2.3360185623168945
F131.84445190429688
F0.013339893892407417
I2294527
I-1
tp52
a((F103.05553436279297
F47.502552032470703
tF2.4388182163238525
F321.75592041015625
F0.013901953585445881
I5440255
I-1
tp53
a((F315.2974853515625
F58.787841796875
tF2.2185454368591309
F133.10972595214844
F0.01352987065911293
I15270399
I-1
tp54
a((F1169.57861328125
F69.561210632324219
tF2.7030580043792725
F229.07508850097656
F0.014973028562963009
I12845823
I-1
tp55
a((F454.03643798828125
F75.085243225097656
tF2.5478427410125732
F271.76358032226562
F0.017220459878444672
I8585983
I-1
tp56
a((F515.93194580078125
F83.188331604003906
tF2.7181682586669922
F346.27059936523438
F0.027404880151152611
I13239039
I-1
tp57
a((F515.93194580078125
F83.188331604003906
tF2.7181682586669922
F317.82818603515625
F0.027404880151152611
I13239039
I-1
tp58
a((F554.17108154296875
F83.8074951171875
tF2.8910470008850098
F268.91876220703125
F0.014951799996197224
I984063
I-1
tp59
a((F546.107421875
F87.16845703125
tF2.3847215175628662
F223.19476318359375
F0.014446074143052101
I3801855
I-1
tp60
a((F1173.625244140625
F87.131538391113281
tF2.8296563625335693
F275.15036010742188
F0.019816940650343895
I16188159
I-1
tp61
a((F1173.625244140625
F87.131538391113281
tF2.8296563625335693
F86.562225341796875
F0.019816940650343895
I16188159
I-1
tp62
a((F1180.74560546875
F87.657974243164062
tF2.2826449871063232
F292.7437744140625
F0.022237315773963928
I656127
I-1
tp63
a((F20.229074478149414
F88.364250183105469
tF2.3439469337463379
F269.9993896484375
F0.013518130406737328
I2556671
I-1
tp64
a((F323.11764526367188
F88.052223205566406
tF2.5375959873199463
F268.76522827148438
F0.014935009181499481
I8323839
I-1
tp65
a((F583.86053466796875
F89.311454772949219
tF2.5705089569091797
F326.7464599609375
F0.016095390543341637
I9241343
I-1
tp66
a((F507.78659057617188
F92.608009338378906
tF2.0436713695526123
F183.263671875
F0.016367841511964798
I9372159
I-1
tp67
a((F32.740489959716797
F93.572341918945312
tF2.7421832084655762
F318.54345703125
F0.014204299077391624
I13894399
I-1
tp68
a((F522.56964111328125
F93.851295471191406
tF2.6900098323822021
F183.16464233398438
F0.033504299819469452
I12518143
I-1
tp69
a((F546.70703125
F94.149971008300781
tF2.6578383445739746
F170.80299377441406
F0.037794813513755798
I11666175
I-1
tp70
a((F587.0350341796875
F94.054534912109375
tF2.7349622249603271
F325.79208374023438
F0.028855077922344208
I13697791
I-1
tp71
a((F409.59640502929688
F94.760612487792969
tF2.5133717060089111
F207.48095703125
F0.017189193516969681
I7602943
I-1
tp72
a((F111.67587280273438
F96.041244506835938
tF2.188387393951416
F284.64056396484375
F0.021630052477121353
I14287359
I-1
tp73
a((F111.67587280273438
F96.041244506835938
tF2.188387393951416
F193.50595092773438
F0.021630052477121353
I14287359
I-1
tp74
a((F459.47506713867188
F95.918899536132812
tF2.5920171737670898
F0.069915771484375
F0.014585954137146473
I9831167
I-1
tp75
a((F568.0196533203125
F96.490524291992188
tF2.476609468460083
F0.159149169921875
F0.017038380727171898
I6554367
I-1
tp76
a((F131.11320495605469
F96.963600158691406
tF2.5940396785736084
F320.95449829101562
F0.014046573080122471
I9896703
I-1
tp77
a((F344.66030883789062
F97.644340515136719
tF2.575589656829834
F136.85598754882812
F0.022620119154453278
I9372415
I-1
tp78
a((F332.91006469726562
F100.42246246337891
tF2.6193904876708984
F1.221038818359375
F0.015327075496315956
I10617599
I-1
tp79
a((F594.163330078125
F102.35090637207031
tF2.6129360198974609
F327.81875610351562
F0.024107981473207474
I10420991
I-1
tp80
a((F507.400390625
F104.78986358642578
tF2.7711341381072998
F182.00558471679688
F0.015642959624528885
I14680831
I-1
tp81
a((F407.89718627929688
F111.78725433349609
tF2.8034076690673828
F163.35981750488281
F0.015697112306952477
I15467263
I-1
tp82
a((F583.6282958984375
F113.86281585693359
tF2.6341245174407959
F41.710693359375
F0.017529617995023727
I11010815
I-1
tp83
a((F124.03975677490234
F116.36795043945312
tF2.5625951290130615
F181.13035583496094
F0.013563948683440685
I8979199
I-1
tp84
a((F328.67977905273438
F119.87129211425781
tF2.5775206089019775
F170.71638488769531
F0.034874826669692993
I9437951
I-1
tp85
a((F328.67977905273438
F119.87129211425781
tF2.5775206089019775
F5.16552734375
F0.034874826669692993
I9437951
I-1
tp86
a((F428.43856811523438
F120.61344909667969
tF2.3779067993164062
F62.530548095703125
F0.013856853358447552
I3605247
I-1
tp87
a((F347.81854248046875
F120.93799591064453
tF2.8021326065063477
F139.05824279785156
F0.015250120311975479
I15467263
I-1
tp88
a((F177.60728454589844
F123.08943176269531
tF2.2897109985351562
F180.0716552734375
F0.021664898842573166
I852735
I-1
tp89
a((F1181.36376953125
F5.6639723777770996
tF2.8937022686004639
F288.18243408203125
F0.0170139130204916
I1049599
I-1
tp90
a((F1163.7921142578125
F8.7932329177856445
tF3.2022926807403564
F221.78437805175781
F0.014636536128818989
I8389631
I-1
tp91
a((F292.02493286132812
F23.048126220703125
tF3.275897741317749
F218.44967651367188
F0.023617051541805267
I10028031
I-1
tp92
a((F323.95199584960938
F25.512979507446289
tF3.0539002418518066
F269.63934326171875
F0.014556550420820713
I4981759
I-1
tp93
a((F21.040117263793945
F27.079248428344727
tF3.0429971218109131
F307.9931640625
F0.013563573360443115
I4719615
I-1
tp94
a((F331.25909423828125
F27.09345817565918
tF3.3244445323944092
F299.3564453125
F0.01658659428358078
I11142143
I-1
tp95
a((F125.51478576660156
F29.516273498535156
tF3.32993483543396
F270.39859008789062
F0.014168084599077702
I11207679
I-1
tp96
a((F132.67948913574219
F31.500411987304688
tF3.2135655879974365
F297.97357177734375
F0.015391274355351925
I8651775
I-1
tp97
a((F101.65094757080078
F32.364250183105469
tF3.1815249919891357
F309.01300048828125
F0.014458131976425648
I7930879
I-1
tp98
a((F283.42852783203125
F33.636970520019531
tF3.2478203773498535
F218.49758911132812
F0.02208516001701355
I9438207
I-1
tp99
a((F260.44830322265625
F35.510086059570312
tF3.1907002925872803
F181.27149963378906
F0.014107165858149529
I8127487
I-1
tp100
a((F1184.376708984375
F39.53497314453125
tF3.3214550018310547
F266.83663940429688
F0.03473372757434845
I11076607
I-1
tp101
a((F1184.376708984375
F39.53497314453125
tF3.3214550018310547
F47.13018798828125
F0.03473372757434845
I11076607
I-1
tp102
a((F25.34419059753418
F40.200752258300781
tF2.9663379192352295
F341.7645263671875
F0.018735336139798164
I2884607
I-1
tp103
a((F18.349454879760742
F43.619518280029297
tF3.1065375804901123
F155.5828857421875
F0.016573367640376091
I6226943
I-1
tp104
a((F18.349454879760742
F43.619518280029297
tF3.1065375804901123
F124.44021606445312
F0.016573367640376091
I6226943
I-1
tp105
a((F1184.5755615234375
F44.529632568359375
tF3.16782546043396
F53.20501708984375
F0.014321415685117245
I7603199
I-1
tp106
a((F332.55612182617188
F46.242584228515625
tF3.3643815517425537
F67.54217529296875
F0.018586600199341774
I11994111
I-1
tp107
a((F63.625591278076172
F56.556484222412109
tF3.0172245502471924
F284.08135986328125
F0.022626033052802086
I4129791
I-1
tp108
a((F278.9595947265625
F57.271888732910156
tF3.208026647567749
F141.43904113769531
F0.013665611855685711
I8520703
I-1
tp109
a((F193.4224853515625
F59.109222412109375
tF3.3369863033294678
F3.327972412109375
F0.028282443061470985
I11404287
I-1
tp110
a((F193.4224853515625
F59.109222412109375
tF3.3369863033294678
F181.91012573242188
F0.028282443061470985
I11404287
I-1
tp111
a((F324.62545776367188
F60.470424652099609
tF3.1999921798706055
F81.279876708984375
F0.016734559088945389
I8324095
I-1
tp112
a((F116.05579376220703
F63.552574157714844
tF2.9658174514770508
F129.3199462890625
F0.014879431575536728
I2884607
I-1
tp113
a((F1181.2763671875
F77.081207275390625
tF3.1638569831848145
F92.822967529296875
F0.031561825424432755
I7537663
I-1
tp114
a((F1163.1663818359375
F77.617843627929688
tF2.91623854637146
F221.24592590332031
F0.016423359513282776
I1639423
I-1
tp115
a((F389.27496337890625
F80.000991821289062
tF3.3490757942199707
F1.1436767578125
F0.046910528093576431
I11666431
I-1
tp116
a((F389.27496337890625
F80.000991821289062
tF3.3490757942199707
F202.58273315429688
F0.046910528093576431
I11666431
I-1
tp117
a((F349.42807006835938
F85.963768005371094
tF2.9177331924438477
F326.3529052734375
F0.028792159631848335
I1704959
I-1
tp118
a((F349.42807006835938
F85.963768005371094
tF2.9177331924438477
F208.38629150390625
F0.028792159631848335
I1704959
I-1
tp119
a((F451.44082641601562
F86.027427673339844
tF3.437654972076416
F166.57081604003906
F0.021049376577138901
I13566975
I-1
tp120
a((F451.44082641601562
F86.027427673339844
tF3.437654972076416
F127.43898010253906
F0.021049376577138901
I13566975
I-1
tp121
a((F456.01327514648438
F85.925910949707031
tF2.9207360744476318
F6.6917724609375
F0.030213005840778351
I1770495
I-1
tp122
a((F592.67596435546875
F86.299774169921875
tF2.7685718536376953
F229.390625
F0.013603967614471912
I14615295
I-1
tp123
a((F249.88972473144531
F87.472129821777344
tF3.1252248287200928
F319.23785400390625
F0.020639488473534584
I6620159
I-1
tp124
a((F249.88972473144531
F87.472129821777344
tF3.1252248287200928
F221.71762084960938
F0.020639488473534584
I6620159
I-1
tp125
a((F354.491943359375
F87.41436767578125
tF3.0357234477996826
F280.29672241210938
F0.024076677858829498
I4523007
I-1
tp126
a((F254.94622802734375
F89.504318237304688
tF3.0926735401153564
F278.28982543945312
F0.023009089753031731
I5899263
I-1
tp127
a((F315.96401977539062
F91.062515258789062
tF3.1868743896484375
F296.24026489257812
F0.017449835315346718
I8061951
I-1
tp128
a((F315.96401977539062
F91.062515258789062
tF3.1868743896484375
F242.19482421875
F0.017449835315346718
I8061951
I-1
tp129
a((F526.38714599609375
F91.056297302246094
tF2.9941775798797607
F195.45896911621094
F0.022818323224782944
I3539967
I-1
tp130
a((F194.47682189941406
F91.435287475585938
tF3.4730160236358643
F288.719482421875
F0.016298361122608185
I14287871
I-1
tp131
a((F518.1116943359375
F91.325218200683594
tF3.0874044895172119
F341.72259521484375
F0.028122272342443466
I5768191
I-1
tp132
a((F311.56124877929688
F92.470558166503906
tF3.5208148956298828
F187.1934814453125
F0.02495080791413784
I15270911
I-1
tp133
a((F182.69900512695312
F93.145729064941406
tF3.3671786785125732
F290.73675537109375
F0.018051078543066978
I12059647
I-1
tp134
a((F182.69900512695312
F93.145729064941406
tF3.3671786785125732
F249.16087341308594
F0.018051078543066978
I12059647
I-1
tp135
a((F511.13812255859375
F92.950889587402344
tF3.1188914775848389
F180.28291320800781
F0.027234859764575958
I6489087
I-1
tp136
a((F413.66363525390625
F94.756629943847656
tF3.1646840572357178
F211.70530700683594
F0.020997252315282822
I7537663
I-1
tp137
a((F515.6494140625
F96.111198425292969
tF3.3820061683654785
F4.441986083984375
F0.030819781124591827
I12387327
I-1
tp138
a((F281.28466796875
F96.46649169921875
tF3.014739990234375
F217.21052551269531
F0.020711930468678474
I4064255
I-1
tp139
a((F418.93331909179688
F96.685066223144531
tF3.3347060680389404
F87.922332763671875
F0.034971829503774643
I11338751
I-1
tp140
a((F425.19769287109375
F96.818161010742188
tF3.5145339965820312
F268.26025390625
F0.034972403198480606
I15139839
I-1
tp141
a((F584.89886474609375
F97.886451721191406
tF3.2040805816650391
F152.41700744628906
F0.023390978574752808
I8455167
I-1
tp142
a((F292.3221435546875
F99.226112365722656
tF3.1676826477050781
F265.98907470703125
F0.03399227187037468
I7603199
I-1
tp143
a((F244.79080200195312
F99.944915771484375
tF2.4747192859649658
F167.46307373046875
F0.01911618746817112
I6488831
I-1
tp144
a((F244.79080200195312
F99.944915771484375
tF2.4747192859649658
F141.16508483886719
F0.01911618746817112
I6488831
I-1
tp145
a((F581.9432373046875
F101.70256042480469
tF3.2771129608154297
F213.4781494140625
F0.022591773420572281
I10093567
I-1
tp146
a((F581.9432373046875
F101.70256042480469
tF3.2771129608154297
F155.055419921875
F0.022591773420572281
I10093567
I-1
tp147
a((F1189.4378662109375
F108.10828399658203
tF2.9623334407806396
F57.217681884765625
F0.013518497347831726
I2753535
I-1
tp148
a((F298.31497192382812
F110.26184844970703
tF3.4902255535125732
F64.70257568359375
F0.017830375581979752
I14615551
I-1
tp149
a((F1182.2603759765625
F110.55591583251953
tF3.1073195934295654
F87.76947021484375
F0.015737919136881828
I6226943
I-1
tp150
a((F460.2581787109375
F111.55695343017578
tF3.5207593441009521
F352.98394775390625
F0.024382568895816803
I15270911
I-1
tp151
a((F460.2581787109375
F111.55695343017578
tF3.5207593441009521
F279.618408203125
F0.024382568895816803
I15270911
I-1
tp152
a((F515.2913818359375
F113.30809783935547
tF3.0599148273468018
F1.249725341796875
F0.015715014189481735
I5112831
I-1
tp153
a((F324.60842895507812
F113.50229644775391
tF2.9996540546417236
F179.14427185058594
F0.015979794785380363
I3671039
I-1
tp154
a((F384.43634033203125
F113.36838531494141
tF3.3407227993011475
F265.71664428710938
F0.026565738022327423
I11469823
I-1
tp155
a((F384.43634033203125
F113.36838531494141
tF3.3407227993011475
F190.36354064941406
F0.026565738022327423
I11469823
I-1
tp156
a((F511.05108642578125
F115.84822845458984
tF3.429736852645874
F176.57600402832031
F0.03858465701341629
I13370367
I-1
tp157
a((F511.05108642578125
F115.84822845458984
tF3.429736852645874
F5.509613037109375
F0.03858465701341629
I13370367
I-1
tp158
a((F455.08901977539062
F122.23163604736328
tF2.3750596046447754
F86.498504638671875
F0.014440401457250118
I3474175
I-1
tp159
a((F215.36744689941406
F124.854248046875
tF3.0682485103607178
F114.0201416015625
F0.015841756016016006
I5309439
I-1
tp160
a((F182.05221557617188
F125.56269836425781
tF3.4630036354064941
F108.684326171875
F0.023414945229887962
I14091263
I-1
tp161
a((F84.824211120605469
F129.86376953125
tF2.6171128749847412
F92.783447265625
F0.016375584527850151
I10552063
I-1
tp162
a((F1180.945068359375
F10.126492500305176
tF4.4559626579284668
F288.34439086914062
F0.035636365413665771
I15597824
I-1
tp163
a((F1165.366455078125
F13.582690238952637
tF4.1989083290100098
F218.8173828125
F0.021472431719303131
I11272448
I-1
tp164
a((F1171.76220703125
F14.757773399353027
tF3.8576266765594482
F278.3963623046875
F0.036489032208919525
I5177600
I-1
tp165
a((F1171.76220703125
F14.757773399353027
tF3.8576266765594482
F82.013885498046875
F0.036489032208919525
I5177600
I-1
tp166
a((F1176.3507080078125
F19.445659637451172
tF3.8815114498138428
F279.90020751953125
F0.032708339393138885
I5636352
I-1
tp167
a((F194.8489990234375
F22.195199966430664
tF3.8842544555664062
F338.62478637695312
F0.034652065485715866
I5636352
I-1
tp168
a((F194.8489990234375
F22.195199966430664
tF3.8842544555664062
F280.42129516601562
F0.034652065485715866
I5636352
I-1
tp169
a((F194.8489990234375
F22.195199966430664
tF3.8842544555664062
F174.01834106445312
F0.034652065485715866
I5636352
I-1
tp170
a((F59.970283508300781
F25.246530532836914
tF3.7372996807098389
F178.81025695800781
F0.030462726950645447
I2883840
I-1
tp171
a((F296.731201171875
F26.341741561889648
tF3.6383373737335205
F303.1876220703125
F0.026444053277373314
I917760
I-1
tp172
a((F125.33983612060547
F29.267461776733398
tF3.6262173652648926
F270.4105224609375
F0.01396684255450964
I721152
I-1
tp173
a((F1177.5145263671875
F28.69267463684082
tF3.9387137889862061
F66.27227783203125
F0.031341440975666046
I6684928
I-1
tp174
a((F55.769252777099609
F30.224950790405273
tF4.1100015640258789
F262.28555297851562
F0.018035663291811943
I9765120
I-1
tp175
a((F247.44169616699219
F32.154300689697266
tF3.8998768329620361
F188.73336791992188
F0.031897664070129395
I5964032
I-1
tp176
a((F264.86993408203125
F33.143978118896484
tF4.6413555145263672
F355.45465087890625
F0.032616890966892242
I1835520
I-1
tp177
a((F264.86993408203125
F33.143978118896484
tF4.6413555145263672
F187.92446899414062
F0.032616890966892242
I1835520
I-1
tp178
a((F331.98480224609375
F32.861583709716797
tF4.3497424125671387
F302.83926391601562
F0.02914486825466156
I13828352
I-1
tp179
a((F1174.22412109375
F35.064739227294922
tF4.3526878356933594
F277.76629638671875
F0.035749547183513641
I13893888
I-1
tp180
a((F1174.22412109375
F35.064739227294922
tF4.3526878356933594
F69.312469482421875
F0.035749547183513641
I13893888
I-1
tp181
a((F259.95034790039062
F35.780269622802734
tF3.7103962898254395
F181.51655578613281
F0.01397379394620657
I2359552
I-1
tp182
a((F289.13018798828125
F36.326076507568359
tF3.8621983528137207
F278.66464233398438
F0.035486552864313126
I5243136
I-1
tp183
a((F289.13018798828125
F36.326076507568359
tF3.8621983528137207
F97.4693603515625
F0.035486552864313126
I5243136
I-1
tp184
a((F323.01846313476562
F35.706653594970703
tF3.9639656543731689
F270.37823486328125
F0.03731098398566246
I7143680
I-1
tp185
a((F133.28327941894531
F37.426937103271484
tF4.4195899963378906
F303.82479858398438
F0.029391855001449585
I15008000
I-1
tp186
a((F1160.6865234375
F38.059188842773438
tF5.8707900047302246
F139.861083984375
F0.014685291796922684
I2097920
I-1
tp187
a((F188.83035278320312
F39.349399566650391
tF3.8330860137939453
F111.06108093261719
F0.021254532039165497
I4718848
I-1
tp188
a((F127.73731994628906
F40.083003997802734
tF3.7513999938964844
F263.12667846679688
F0.033022884279489517
I3145984
I-1
tp189
a((F127.73731994628906
F40.083003997802734
tF3.7513999938964844
F91.9564208984375
F0.033022884279489517
I3145984
I-1
tp190
a((F322.2235107421875
F41.203155517578125
tF4.3146953582763672
F85.57659912109375
F0.026356656104326248
I13238528
I-1
tp191
a((F289.77670288085938
F41.866725921630859
tF4.508328914642334
F81.22979736328125
F0.026403658092021942
I16449792
I-1
tp192
a((F1171.0830078125
F46.268894195556641
tF3.8941981792449951
F110.57980346679688
F0.014629332348704338
I5832960
I-1
tp193
a((F13.85102653503418
F47.756111145019531
tF3.8996798992156982
F182.67866516113281
F0.018706865608692169
I5964032
I-1
tp194
a((F234.7203369140625
F49.488109588623047
tF3.8928067684173584
F206.62405395507812
F0.026921555399894714
I5832960
I-1
tp195
a((F234.7203369140625
F49.488109588623047
tF3.8928067684173584
F16.74737548828125
F0.026921555399894714
I5832960
I-1
tp196
a((F36.272651672363281
F50.231906890869141
tF3.9238700866699219
F1.01275634765625
F0.018947109580039978
I6422784
I-1
tp197
a((F19.336708068847656
F50.961151123046875
tF4.2010984420776367
F6.6617431640625
F0.019579526036977768
I11337984
I-1
tp198
a((F298.795654296875
F53.864116668701172
tF4.206082820892334
F53.6873779296875
F0.029080327600240707
I11403520
I-1
tp199
a((F93.886650085449219
F55.132389068603516
tF4.2747917175292969
F268.56021118164062
F0.032422471791505814
I12583168
I-1
tp200
a((F93.886650085449219
F55.132389068603516
tF4.2747917175292969
F115.17320251464844
F0.032422471791505814
I12583168
I-1
tp201
a((F52.517070770263672
F56.056926727294922
tF4.270087718963623
F259.0576171875
F0.021936986595392227
I12517632
I-1
tp202
a((F63.969432830810547
F55.943134307861328
tF3.83209228515625
F287.04412841796875
F0.022417861968278885
I4653312
I-1
tp203
a((F260.1033935546875
F60.216487884521484
tF3.742997407913208
F88.14752197265625
F0.015335227362811565
I2949376
I-1
tp204
a((F260.1033935546875
F60.216487884521484
tF3.742997407913208
F68.591644287109375
F0.015335227362811565
I2949376
I-1
tp205
a((F35.519863128662109
F61.972366333007812
tF4.1624994277954102
F168.72026062011719
F0.024437554180622101
I10682624
I-1
tp206
a((F35.519863128662109
F61.972366333007812
tF4.1624994277954102
F14.2698974609375
F0.024437554180622101
I10682624
I-1
tp207
a((F288.24365234375
F62.252540588378906
tF3.9414348602294922
F100.02413940429688
F0.014218390919268131
I6684928
I-1
tp208
a((F1180.7593994140625
F82.334922790527344
tF4.0088286399841309
F276.42727661132812
F0.034282021224498749
I7930112
I-1
tp209
a((F1180.7593994140625
F82.334922790527344
tF4.0088286399841309
F12.833404541015625
F0.034282021224498749
I7930112
I-1
tp210
a((F386.310302734375
F85.726799011230469
tF3.7684566974639893
F264.02005004882812
F0.020802894607186317
I3473664
I-1
tp211
a((F451.09078979492188
F86.265853881835938
tF3.7900021076202393
F132.63616943359375
F0.021081957966089249
I3866880
I-1
tp212
a((F90.139320373535156
F86.610115051269531
tF4.294952392578125
F2.82183837890625
F0.025582872331142426
I12910848
I-1
tp213
a((F90.139320373535156
F86.610115051269531
tF4.294952392578125
F264.3519287109375
F0.025582872331142426
I12910848
I-1
tp214
a((F90.139320373535156
F86.610115051269531
tF4.294952392578125
F176.55337524414062
F0.025582872331142426
I12910848
I-1
tp215
a((F354.95428466796875
F87.024299621582031
tF3.6312148571014404
F280.5650634765625
F0.02373829297721386
I786688
I-1
tp216
a((F428.00955200195312
F86.760856628417969
tF3.9362099170684814
F290.3790283203125
F0.014166766777634621
I6619392
I-1
tp217
a((F244.62886047363281
F87.962753295898438
tF3.9072587490081787
F224.47718811035156
F0.013994712382555008
I6095104
I-1
tp218
a((F297.26483154296875
F90.126617431640625
tF3.8340156078338623
F299.40078735351562
F0.013589167036116123
I4718848
I-1
tp219
a((F455.90496826171875
F92.835189819335938
tF3.8652591705322266
F359.38336181640625
F0.031035544350743294
I5308672
I-1
tp220
a((F455.90496826171875
F92.835189819335938
tF3.8652591705322266
F179.95681762695312
F0.031035544350743294
I5308672
I-1
tp221
a((F116.42161560058594
F93.8624267578125
tF4.0576648712158203
F266.43450927734375
F0.013487929478287697
I8847616
I-1
tp222
a((F61.100837707519531
F94.427558898925781
tF4.0849604606628418
F290.43475341796875
F0.014462132006883621
I9306368
I-1
tp223
a((F557.7564697265625
F94.552902221679688
tF3.8599750995635986
F261.84002685546875
F0.038472931832075119
I5177600
I-1
tp224
a((F275.68389892578125
F96.565116882324219
tF3.823380708694458
F209.79409790039062
F0.01382702961564064
I4522240
I-1
tp225
a((F591.4722900390625
F96.879539489746094
tF3.7669339179992676
F19.844390869140625
F0.023679889738559723
I3473664
I-1
tp226
a((F286.17724609375
F99.258338928222656
tF3.7617931365966797
F272.5303955078125
F0.033235467970371246
I3342592
I-1
tp227
a((F286.17724609375
F99.258338928222656
tF3.7617931365966797
F84.392059326171875
F0.033235467970371246
I3342592
I-1
tp228
a((F1164.337646484375
F99.4130859375
tF3.9908814430236816
F142.96615600585938
F0.01694931834936142
I7602432
I-1
tp229
a((F1177.34375
F98.624557495117188
tF4.1251034736633301
F282.65621948242188
F0.03859778493642807
I10027264
I-1
tp230
a((F1177.34375
F98.624557495117188
tF4.1251034736633301
F73.015167236328125
F0.03859778493642807
I10027264
I-1
tp231
a((F63.04473876953125
F101.16930389404297
tF4.3931674957275391
F299.867431640625
F0.028949402272701263
I14549248
I-1
tp232
a((F528.55859375
F102.13655853271484
tF3.8489856719970703
F176.16610717773438
F0.03111957386136055
I4980992
I-1
tp233
a((F46.256660461425781
F102.69679260253906
tF3.7101669311523438
F210.58590698242188
F0.020641028881072998
I2359552
I-1
tp234
a((F83.625823974609375
F105.093017578125
tF3.9323768615722656
F134.50152587890625
F0.01913929358124733
I6553856
I-1
tp235
a((F576.97503662109375
F107.08457946777344
tF4.1911416053771973
F212.61074829101562
F0.016160110011696815
I11141376
I-1
tp236
a((F349.06182861328125
F107.82196044921875
tF3.6363632678985596
F180.56159973144531
F0.029154567047953606
I917760
I-1
tp237
a((F216.38125610351562
F108.90261840820312
tF4.0795259475708008
F340.18243408203125
F0.018477128818631172
I9240832
I-1
tp238
a((F582.3492431640625
F108.86360931396484
tF4.4524612426757812
F211.84007263183594
F0.029130725190043449
I15532288
I-1
tp239
a((F55.864639282226562
F110.25366973876953
tF4.3600831031799316
F257.87033081054688
F0.024766162037849426
I14024960
I-1
tp240
a((F328.956787109375
F110.22833251953125
tF4.0600905418395996
F2.5498046875
F0.029108725488185883
I8847616
I-1
tp241
a((F328.956787109375
F110.22833251953125
tF4.0600905418395996
F179.5487060546875
F0.029108725488185883
I8847616
I-1
tp242
a((F1182.0450439453125
F110.99533081054688
tF3.6218812465667725
F87.45745849609375
F0.01557709276676178
I590080
I-1
tp243
a((F394.0101318359375
F112.56700134277344
tF3.7714581489562988
F286.53634643554688
F0.026199944317340851
I3539200
I-1
tp244
a((F48.681789398193359
F112.83785247802734
tF4.1766109466552734
F222.65602111816406
F0.024662530049681664
I10879232
I-1
tp245
a((F48.681789398193359
F112.83785247802734
tF4.1766109466552734
F60.8773193359375
F0.024662530049681664
I10879232
I-1
tp246
a((F105.73847198486328
F112.68293762207031
tF4.0337977409362793
F180.23085021972656
F0.013379556126892567
I8388864
I-1
tp247
a((F212.11622619628906
F113.18638610839844
tF4.4799718856811523
F336.50173950195312
F0.031384710222482681
I15991040
I-1
tp248
a((F212.11622619628906
F113.18638610839844
tF4.4799718856811523
F169.06939697265625
F0.031384710222482681
I15991040
I-1
tp249
a((F384.20828247070312
F113.11415100097656
tF3.6243538856506348
F260.09231567382812
F0.026286466047167778
I655616
I-1
tp250
a((F533.45465087890625
F114.47370910644531
tF4.0001163482666016
F176.48974609375
F0.036616496741771698
I7799040
I-1
tp251
a((F565.859375
F114.68728637695312
tF4.4918813705444336
F348.22064208984375
F0.032916124910116196
I16187648
I-1
tp252
a((F565.859375
F114.68728637695312
tF4.4918813705444336
F101.48703002929688
F0.032916124910116196
I16187648
I-1
tp253
a((F578.10601806640625
F114.76031494140625
tF3.9469311237335205
F207.3897705078125
F0.037470489740371704
I6816000
I-1
tp254
a((F578.10601806640625
F114.76031494140625
tF3.9469311237335205
F44.324127197265625
F0.037470489740371704
I6816000
I-1
tp255
a((F596.72418212890625
F114.55245971679688
tF4.1156291961669922
F335.73150634765625
F0.039479304105043411
I9830656
I-1
tp256
a((F596.72418212890625
F114.55245971679688
tF4.1156291961669922
F142.61491394042969
F0.039479304105043411
I9830656
I-1
tp257
a((F296.31478881835938
F116.86617279052734
tF4.4073071479797363
F239.69668579101562
F0.036646377295255661
I14811392
I-1
tp258
a((F296.31478881835938
F116.86617279052734
tF4.4073071479797363
F58.46826171875
F0.036646377295255661
I14811392
I-1
tp259
a((F445.964599609375
F117.41042327880859
tF4.201993465423584
F253.37193298339844
F0.035008508712053299
I11337984
I-1
tp260
a((F445.964599609375
F117.41042327880859
tF4.201993465423584
F102.65557861328125
F0.035008508712053299
I11337984
I-1
tp261
a((F398.75210571289062
F118.10577392578125
tF4.095634937286377
F287.0321044921875
F0.037367373704910278
I9502976
I-1
tp262
a((F398.75210571289062
F118.10577392578125
tF4.095634937286377
F78.064544677734375
F0.037367373704910278
I9502976
I-1
tp263
a((F560.19476318359375
F119.33039855957031
tF4.7291116714477539
F87.765594482421875
F0.017068684101104736
I3211776
I-1
tp264
a((F310.9794921875
F119.60883331298828
tF3.8499095439910889
F171.566650390625
F0.032329574227333069
I5046528
I-1
tp265
a((F310.9794921875
F119.60883331298828
tF3.8499095439910889
F9.957000732421875
F0.032329574227333069
I5046528
I-1
tp266
a((F247.13006591796875
F123.04486846923828
tF3.6795914173126221
F139.46127319335938
F0.013368706218898296
I1769728
I-1
tp267
a((F383.7847900390625
F123.98841857910156
tF4.228416919708252
F91.183074951171875
F0.014924787916243076
I11796736
I-1
tp268
a((F182.32325744628906
F125.9130859375
tF3.7243640422821045
F103.7398681640625
F0.023577071726322174
I2621696
I-1
tp269
a((F182.32325744628906
F125.9130859375
tF3.7243640422821045
F13.594207763671875
F0.023577071726322174
I2621696
I-1
tp270
a((F1171.7999267578125
F8.9333677291870117
tF4.4964756965637207
F270.8428955078125
F0.033382352441549301
I16253184
I-1
tp271
a((F296.31338500976562
F19.911733627319336
tF4.3891406059265137
F227.05496215820312
F0.034049052745103836
I14483712
I-1
tp272
a((F189.92039489746094
F27.073270797729492
tF4.6614980697631836
F261.91036987304688
F0.019397875294089317
I2163200
I-1
tp273
a((F185.82746887207031
F33.265228271484375
tF5.1945314407348633
F259.31692504882812
F0.033543352037668228
I9961984
I-1
tp274
a((F298.63046264648438
F33.311733245849609
tF4.7491283416748047
F311.03921508789062
F0.028747409582138062
I3473920
I-1
tp275
a((F26.063070297241211
F33.678211212158203
tF5.6285820007324219
F332.386474609375
F0.022288648411631584
I15794688
I-1
tp276
a((F125.11417388916016
F34.594196319580078
tF4.7334098815917969
F271.96078491210938
F0.030797500163316727
I3277312
I-1
tp277
a((F98.517890930175781
F36.652992248535156
tF4.9378390312194824
F300.6424560546875
F0.040639292448759079
I6291968
I-1
tp278
a((F98.517890930175781
F36.652992248535156
tF4.9378390312194824
F91.27093505859375
F0.040639292448759079
I6291968
I-1
tp279
a((F217.46807861328125
F36.283645629882812
tF4.9528346061706543
F219.99534606933594
F0.028099071234464645
I6554112
I-1
tp280
a((F235.21583557128906
F39.741378784179688
tF4.7430038452148438
F338.0498046875
F0.029928438365459442
I3408384
I-1
tp281
a((F235.21583557128906
F39.741378784179688
tF4.7430038452148438
F150.64801025390625
F0.029928438365459442
I3408384
I-1
tp282
a((F330.59140014648438
F40.709327697753906
tF5.6738796234130859
F82.30328369140625
F0.027748353779315948
I16384512
I-1
tp283
a((F330.59140014648438
F40.709327697753906
tF5.6738796234130859
F9.155120849609375
F0.027748353779315948
I16384512
I-1
tp284
a((F93.153671264648438
F42.066204071044922
tF4.5912947654724121
F290.60598754882812
F0.03626536950469017
I1049088
I-1
tp285
a((F93.153671264648438
F42.066204071044922
tF4.5912947654724121
F92.216217041015625
F0.03626536950469017
I1049088
I-1
tp286
a((F298.27947998046875
F41.366081237792969
tF5.3809127807617188
F85.76214599609375
F0.031200077384710312
I12517888
I-1
tp287
a((F298.27947998046875
F41.366081237792969
tF5.3809127807617188
F7.035980224609375
F0.031200077384710312
I12517888
I-1
tp288
a((F132.81434631347656
F44.825664520263672
tF5.3207135200500488
F42.743865966796875
F0.027934476733207703
I11731456
I-1
tp289
a((F132.81434631347656
F44.825664520263672
tF5.3207135200500488
F8.7508544921875
F0.027934476733207703
I11731456
I-1
tp290
a((F25.099447250366211
F47.658798217773438
tF4.8486762046813965
F126.79495239257812
F0.030699284747242928
I4981248
I-1
tp291
a((F25.099447250366211
F47.658798217773438
tF4.8486762046813965
F49.020660400390625
F0.030699284747242928
I4981248
I-1
tp292
a((F58.827896118164062
F49.200462341308594
tF4.5515041351318359
F0.920562744140625
F0.022587750107049942
I393728
I-1
tp293
a((F329.87811279296875
F53.839790344238281
tF5.115727424621582
F68.200714111328125
F0.034564219415187836
I8847872
I-1
tp294
a((F13.620941162109375
F55.347335815429688
tF5.259427547454834
F180.39907836914062
F0.022378554567694664
I10879488
I-1
tp295
a((F13.620941162109375
F55.347335815429688
tF5.259427547454834
F10.163818359375
F0.022378554567694664
I10879488
I-1
tp296
a((F216.7117919921875
F54.542957305908203
tF5.4571681022644043
F317.28573608398438
F0.034250039607286453
I13566464
I-1
tp297
a((F216.7117919921875
F54.542957305908203
tF5.4571681022644043
F130.51333618164062
F0.034250039607286453
I13566464
I-1
tp298
a((F263.75601196289062
F54.678562164306641
tF5.0861735343933105
F7.49359130859375
F0.032103922218084335
I8454656
I-1
tp299
a((F291.14285278320312
F56.89208984375
tF5.1995863914489746
F94.180419921875
F0.032904639840126038
I10027520
I-1
tp300
a((F131.58566284179688
F58.1895751953125
tF5.5236935615539551
F55.24090576171875
F0.027440520003437996
I14418432
I-1
tp301
a((F85.212806701660156
F60.118816375732422
tF5.0757813453674316
F269.9403076171875
F0.037058722227811813
I8323584
I-1
tp302
a((F85.212806701660156
F60.118816375732422
tF5.0757813453674316
F113.76123046875
F0.037058722227811813
I8323584
I-1
tp303
a((F49.970443725585938
F62.003429412841797
tF5.2461791038513184
F253.85162353515625
F0.034785062074661255
I10682880
I-1
tp304
a((F49.970443725585938
F62.003429412841797
tF5.2461791038513184
F95.976715087890625
F0.034785062074661255
I10682880
I-1
tp305
a((F66.561805725097656
F61.604354858398438
tF5.1673636436462402
F292.86190795898438
F0.035815928131341934
I9568768
I-1
tp306
a((F66.561805725097656
F61.604354858398438
tF5.1673636436462402
F79.63299560546875
F0.035815928131341934
I9568768
I-1
tp307
a((F186.88668823242188
F61.940750122070312
tF5.0725207328796387
F251.48789978027344
F0.02122596837580204
I8258048
I-1
tp308
a((F182.65913391113281
F69.788375854492188
tF5.6486544609069824
F254.74166870117188
F0.036787863820791245
I16056832
I-1
tp309
a((F182.65913391113281
F69.788375854492188
tF5.6486544609069824
F77.78717041015625
F0.036787863820791245
I16056832
I-1
tp310
a((F1174.90234375
F71.669624328613281
tF4.849705696105957
F266.75408935546875
F0.033775661140680313
I4981248
I-1
tp311
a((F1183.4964599609375
F72.127975463867188
tF5.022092342376709
F276.83197021484375
F0.037588395178318024
I7537152
I-1
tp312
a((F1162.8184814453125
F76.004364013671875
tF4.6325292587280273
F219.21713256835938
F0.015326176770031452
I1704448
I-1
tp313
a((F522.427734375
F86.699493408203125
tF5.4180355072021484
F338.2509765625
F0.027570292353630066
I13042176
I-1
tp314
a((F1159.8468017578125
F87.45709228515625
tF4.6290273666381836
F176.43203735351562
F0.015488611534237862
I1638912
I-1
tp315
a((F1186.0152587890625
F86.88385009765625
tF5.1816325187683105
F0.419952392578125
F0.014551424421370029
I9765376
I-1
tp316
a((F554.61285400390625
F88.491111755371094
tF4.8811125755310059
F275.04550170898438
F0.030737940222024918
I5440000
I-1
tp317
a((F579.0528564453125
F89.814384460449219
tF4.9472932815551758
F317.8797607421875
F0.038278751075267792
I6423040
I-1
tp318
a((F579.0528564453125
F89.814384460449219
tF4.9472932815551758
F147.3363037109375
F0.038278751075267792
I6423040
I-1
tp319
a((F420.26654052734375
F90.749702453613281
tF4.8435111045837402
F265.12200927734375
F0.030510798096656799
I4915712
I-1
tp320
a((F594.633056640625
F90.88970947265625
tF4.6091876029968262
F22.07049560546875
F0.034789431840181351
I1311232
I-1
tp321
a((F360.84188842773438
F92.164451599121094
tF4.8047685623168945
F282.99905395507812
F0.037597041577100754
I4325888
I-1
tp322
a((F360.84188842773438
F92.164451599121094
tF4.8047685623168945
F73.461578369140625
F0.037597041577100754
I4325888
I-1
tp323
a((F324.62973022460938
F93.077804565429688
tF5.6383051872253418
F306.47750854492188
F0.034831751137971878
I15925760
I-1
tp324
a((F324.62973022460938
F93.077804565429688
tF5.6383051872253418
F269.7369384765625
F0.034831751137971878
I15925760
I-1
tp325
a((F563.8565673828125
F92.820899963378906
tF4.633765697479248
F348.83078002929688
F0.029548985883593559
I1704448
I-1
tp326
a((F260.81692504882812
F93.998313903808594
tF5.1235718727111816
F281.9798583984375
F0.037536837160587311
I8978944
I-1
tp327
a((F260.81692504882812
F93.998313903808594
tF5.1235718727111816
F74.323699951171875
F0.037536837160587311
I8978944
I-1
tp328
a((F430.29202270507812
F94.192680358886719
tF4.6923022270202637
F338.31790161132812
F0.029699156060814857
I2621952
I-1
tp329
a((F430.29202270507812
F94.192680358886719
tF4.6923022270202637
F304.11862182617188
F0.029699156060814857
I2621952
I-1
tp330
a((F296.72796630859375
F95.724586486816406
tF4.6587057113647461
F308.6805419921875
F0.025453595444560051
I2097664
I-1
tp331
a((F28.649448394775391
F96.045219421386719
tF4.6265630722045898
F319.73648071289062
F0.034559223800897598
I1573376
I-1
tp332
a((F28.649448394775391
F96.045219421386719
tF4.6265630722045898
F106.58038330078125
F0.034559223800897598
I1573376
I-1
tp333
a((F54.182167053222656
F98.537406921386719
tF4.8691763877868652
F260.73220825195312
F0.032134216278791428
I5308928
I-1
tp334
a((F355.627685546875
F99.102500915527344
tF5.2258305549621582
F74.570831298828125
F0.022791372612118721
I10420736
I-1
tp335
a((F255.30804443359375
F100.94908142089844
tF5.0801730155944824
F71.49951171875
F0.02237478643655777
I8389120
I-1
tp336
a((F522.319580078125
F101.14665222167969
tF5.0836448669433594
F150.1160888671875
F0.034133944660425186
I8389120
I-1
tp337
a((F522.319580078125
F101.14665222167969
tF5.0836448669433594
F28.383636474609375
F0.034133944660425186
I8389120
I-1
tp338
a((F580.31689453125
F101.32634735107422
tF4.9705047607421875
F201.76359558105469
F0.022204533219337463
I6816256
I-1
tp339
a((F580.31689453125
F101.32634735107422
tF4.9705047607421875
F150.91845703125
F0.022204533219337463
I6816256
I-1
tp340
a((F212.65095520019531
F103.17979431152344
tF4.9505634307861328
F199.67955017089844
F0.026728875935077667
I6488576
I-1
tp341
a((F212.65095520019531
F103.17979431152344
tF4.9505634307861328
F31.93536376953125
F0.026728875935077667
I6488576
I-1
tp342
a((F233.01045227050781
F103.1077880859375
tF4.6351923942565918
F349.69424438476562
F0.032378766685724258
I1704448
I-1
tp343
a((F233.01045227050781
F103.1077880859375
tF4.6351923942565918
F152.12904357910156
F0.032378766685724258
I1704448
I-1
tp344
a((F548.28936767578125
F103.11402130126953
tF5.104344367980957
F209.69424438476562
F0.028365757316350937
I8716800
I-1
tp345
a((F1172.97900390625
F103.16851043701172
tF4.7048358917236328
F131.005126953125
F0.029258193448185921
I2818560
I-1
tp346
a((F1186.9697265625
F104.06624603271484
tF4.6300396919250488
F271.77960205078125
F0.039469171315431595
I1638912
I-1
tp347
a((F295.96609497070312
F104.52204895019531
tF5.2630014419555664
F82.699310302734375
F0.030094262212514877
I10945024
I-1
tp348
a((F405.94631958007812
F104.91901397705078
tF4.7700338363647461
F179.49783325195312
F0.015424086712300777
I3801600
I-1
tp349
a((F449.6876220703125
F110.64570617675781
tF4.9689512252807617
F241.70840454101562
F0.022194096818566322
I6750720
I-1
tp350
a((F355.11691284179688
F111.92638397216797
tF4.6857438087463379
F292.3865966796875
F0.023422155529260635
I2490880
I-1
tp351
a((F232.26841735839844
F112.89418792724609
tF4.775998592376709
F14.960296630859375
F0.025326814502477646
I3867136
I-1
tp352
a((F588.0596923828125
F112.95809173583984
tF5.3527913093566895
F132.51968383789062
F0.024353720247745514
I12124672
I-1
tp353
a((F588.0596923828125
F112.95809173583984
tF5.3527913093566895
F51.4998779296875
F0.024353720247745514
I12124672
I-1
tp354
a((F255.36198425292969
F114.03488922119141
tF4.8079023361206055
F293.696533203125
F0.023047512397170067
I4391424
I-1
tp355
a((F546.44989013671875
F113.86196899414062
tF5.5139141082763672
F124.93161010742188
F0.031607713550329208
I14287360
I-1
tp356
a((F197.27070617675781
F114.72587585449219
tF4.9300909042358398
F207.6563720703125
F0.027067694813013077
I6226432
I-1
tp357
a((F197.27070617675781
F114.72587585449219
tF4.9300909042358398
F14.72784423828125
F0.027067694813013077
I6226432
I-1
tp358
a((F428.79733276367188
F115.33689117431641
tF4.8794374465942383
F255.86126708984375
F0.033632494509220123
I5440000
I-1
tp359
a((F428.79733276367188
F115.33689117431641
tF4.8794374465942383
F56.540069580078125
F0.033632494509220123
I5440000
I-1
tp360
a((F8.974125862121582
F117.19276428222656
tF4.9626898765563965
F337.64480590820312
F0.026247363537549973
I6685184
I-1
tp361
a((F8.974125862121582
F117.19276428222656
tF4.9626898765563965
F170.34599304199219
F0.026247363537549973
I6685184
I-1
tp362
a((F464.67816162109375
F117.11894989013672
tF5.0704751014709473
F292.4222412109375
F0.034874260425567627
I8192512
I-1
tp363
a((F464.67816162109375
F117.11894989013672
tF5.0704751014709473
F79.534637451171875
F0.034874260425567627
I8192512
I-1
tp364
a((F82.22039794921875
F118.33902740478516
tF5.1176457405090332
F252.22410583496094
F0.020881626754999161
I8913408
I-1
tp365
a((F94.827796936035156
F118.25128173828125
tF4.9141716957092285
F294.47525024414062
F0.018670413643121719
I5964288
I-1
tp366
a((F380.01290893554688
F118.45174407958984
tF5.2091522216796875
F250.78424072265625
F0.034559644758701324
I10158592
I-1
tp367
a((F380.01290893554688
F118.45174407958984
tF5.2091522216796875
F96.707427978515625
F0.034559644758701324
I10158592
I-1
tp368
a((F229.69148254394531
F118.87059020996094
tF5.4432520866394043
F28.554046630859375
F0.027113255113363266
I13369856
I-1
tp369
a((F358.54312133789062
F118.80108642578125
tF5.2853832244873047
F289.22515869140625
F0.033539988100528717
I11207168
I-1
tp370
a((F358.54312133789062
F118.80108642578125
tF5.2853832244873047
F72.18475341796875
F0.033539988100528717
I11207168
I-1
tp371
a((F221.27769470214844
F121.85517120361328
tF5.252021312713623
F105.66812133789062
F0.035447847098112106
I10748416
I-1
tp372
a((F128.1494140625
F122.53656768798828
tF5.2749686241149902
F175.45584106445312
F0.026406669989228249
I11076096
I-1
tp373
a((F128.1494140625
F122.53656768798828
tF5.2749686241149902
F11.00390625
F0.026406669989228249
I11076096
I-1
tp374
a((F188.88780212402344
F122.77211761474609
tF4.936131477355957
F92.61785888671875
F0.034824158996343613
I6291968
I-1
tp375
a((F97.309913635253906
F124.54661560058594
tF4.7078523635864258
F294.1171875
F0.034306779503822327
I2884096
I-1
tp376
a((F97.309913635253906
F124.54661560058594
tF4.7078523635864258
F77.62640380859375
F0.034306779503822327
I2884096
I-1
tp377
a((F59.535709381103516
F129.7088623046875
tF4.6369814872741699
F94.631378173828125
F0.016671789810061455
I1769984
I-1
tp378
a((F93.791435241699219
F131.01100158691406
tF4.5814666748046875
F81.5223388671875
F0.015597502700984478
I918016
I-1
tp379
a((F35.532070159912109
F32.924816131591797
tF6.9307703971862793
F2.018402099609375
F0.034515954554080963
I14091008
I-1
tp380
a((F17.459968566894531
F32.963371276855469
tF6.7126288414001465
F186.21977233886719
F0.036301057785749435
I11797248
I-1
tp381
a((F191.84982299804688
F34.123497009277344
tF6.8470396995544434
F358.39251708984375
F0.035666767507791519
I13239040
I-1
tp382
a((F191.84982299804688
F34.123497009277344
tF6.8470396995544434
F260.693115234375
F0.035666767507791519
I13239040
I-1
tp383
a((F191.84982299804688
F34.123497009277344
tF6.8470396995544434
F124.20692443847656
F0.035666767507791519
I13239040
I-1
tp384
a((F56.836040496826172
F37.060054779052734
tF6.4664111137390137
F358.859619140625
F0.038287676870822906
I9110272
I-1
tp385
a((F56.836040496826172
F37.060054779052734
tF6.4664111137390137
F142.52876281738281
F0.038287676870822906
I9110272
I-1
tp386
a((F315.53570556640625
F40.354701995849609
tF6.8585205078125
F205.5008544921875
F0.028330575674772263
I13370112
I-1
tp387
a((F315.53570556640625
F40.354701995849609
tF6.8585205078125
F182.79364013671875
F0.028330575674772263
I13370112
I-1
tp388
a((F85.964950561523438
F45.596199035644531
tF5.9473834037780762
F155.46546936035156
F0.031259208917617798
I3080960
I-1
tp389
a((F85.964950561523438
F45.596199035644531
tF5.9473834037780762
F123.6021728515625
F0.031259208917617798
I3080960
I-1
tp390
a((F117.15629577636719
F45.501743316650391
tF7.1050186157226562
F186.02342224121094
F0.027079246938228607
I15926016
I-1
tp391
a((F323.03494262695312
F48.391025543212891
tF5.787137508392334
F80.48419189453125
F0.037968546152114868
I1049344
I-1
tp392
a((F290.66741943359375
F49.244335174560547
tF5.9772505760192871
F80.563995361328125
F0.036601241677999496
I3408640
I-1
tp393
a((F124.11101531982422
F53.077926635742188
tF5.7073159217834473
F78.88531494140625
F0.036841753870248795
I66304
I-1
tp394
a((F250.60346984863281
F56.344482421875
tF6.0357694625854492
F300.85894775390625
F0.03620331734418869
I4129536
I-1
tp395
a((F250.60346984863281
F56.344482421875
tF6.0357694625854492
F128.71650695800781
F0.03620331734418869
I4129536
I-1
tp396
a((F250.60346984863281
F56.344482421875
tF6.0357694625854492
F89.637115478515625
F0.03620331734418869
I4129536
I-1
tp397
a((F453.5478515625
F80.266510009765625
tF6.6352629661560059
F358.2528076171875
F0.041362054646015167
I10945280
I-1
tp398
a((F453.5478515625
F80.266510009765625
tF6.6352629661560059
F144.17221069335938
F0.041362054646015167
I10945280
I-1
tp399
a((F531.5281982421875
F85.3826904296875
tF6.9768142700195312
F355.9288330078125
F0.037464238703250885
I14615296
I-1
tp400
a((F386.87460327148438
F92.286262512207031
tF6.5646219253540039
F356.892333984375
F0.038417410105466843
I10224384
I-1
tp401
a((F386.87460327148438
F92.286262512207031
tF6.5646219253540039
F143.29806518554688
F0.038417410105466843
I10224384
I-1
tp402
a((F225.97187805175781
F95.070594787597656
tF5.7745189666748047
F276.25054931640625
F0.033349458128213882
I918272
I-1
tp403
a((F313.10000610351562
F96.402763366699219
tF6.2057852745056152
F264.15179443359375
F0.032715726643800735
I6095616
I-1
tp404
a((F313.10000610351562
F96.402763366699219
tF6.2057852745056152
F187.519287109375
F0.032715726643800735
I6095616
I-1
tp405
a((F125.4111328125
F98.218742370605469
tF6.0968270301818848
F291.37020874023438
F0.03537929430603981
I4850432
I-1
tp406
a((F125.4111328125
F98.218742370605469
tF6.0968270301818848
F270.73736572265625
F0.03537929430603981
I4850432
I-1
tp407
a((F86.508987426757812
F99.126724243164062
tF6.3955550193786621
F1.58587646484375
F0.039855074137449265
I8323840
I-1
tp408
a((F86.508987426757812
F99.126724243164062
tF6.3955550193786621
F142.28593444824219
F0.039855074137449265
I8323840
I-1
tp409
a((F540.78350830078125
F99.066574096679688
tF6.7633500099182129
F1.219940185546875
F0.026525150984525681
I12321536
I-1
tp410
a((F540.78350830078125
F99.066574096679688
tF6.7633500099182129
F206.27450561523438
F0.026525150984525681
I12321536
I-1
tp411
a((F180.06948852539062
F99.561203002929688
tF6.8548340797424316
F181.73454284667969
F0.033296480774879456
I13304576
I-1
tp412
a((F562.72509765625
F100.40557861328125
tF6.7729239463806152
F358.08465576171875
F0.028320074081420898
I12452608
I-1
tp413
a((F113.26717376708984
F101.01766967773438
tF6.3628134727478027
F184.23544311523438
F0.032371524721384048
I7930624
I-1
tp414
a((F429.89273071289062
F101.27192687988281
tF5.8684310913085938
F10.439453125
F0.029175510630011559
I2097920
I-1
tp415
a((F321.24005126953125
F101.99494934082031
tF6.7447876930236816
F175.11039733886719
F0.02796654962003231
I12124928
I-1
tp416
a((F321.24005126953125
F101.99494934082031
tF6.7447876930236816
F36.8173828125
F0.02796654962003231
I12124928
I-1
tp417
a((F8.4497098922729492
F104.05995941162109
tF5.4781527519226074
F192.2489013671875
F0.020870605483651161
I13828608
I-1
tp418
a((F121.05126190185547
F106.80449676513672
tF6.6074929237365723
F175.813720703125
F0.026649985462427139
I10683136
I-1
tp419
a((F121.05126190185547
F106.80449676513672
tF6.6074929237365723
F47.169921875
F0.026649985462427139
I10683136
I-1
tp420
a((F554.890625
F107.79558563232422
tF5.9840912818908691
F201.64642333984375
F0.040568746626377106
I3474176
I-1
tp421
a((F554.890625
F107.79558563232422
tF5.9840912818908691
F66.68621826171875
F0.040568746626377106
I3474176
I-1
tp422
a((F421.23233032226562
F110.08995819091797
tF5.9607195854187012
F79.674407958984375
F0.036166887730360031
I3212032
I-1
tp423
a((F26.925086975097656
F111.29257965087891
tF6.4702997207641602
F263.60205078125
F0.036846470087766647
I9175808
I-1
tp424
a((F26.925086975097656
F111.29257965087891
tF6.4702997207641602
F138.72415161132812
F0.036846470087766647
I9175808
I-1
tp425
a((F61.369251251220703
F111.01004791259766
tF6.955721378326416
F358.60272216796875
F0.026258224621415138
I14353152
I-1
tp426
a((F288.10943603515625
F112.48198699951172
tF6.0333762168884277
F83.818267822265625
F0.0387224480509758
I4064000
I-1
tp427
a((F563.8873291015625
F112.84276580810547
tF6.521794319152832
F353.26904296875
F0.03372395783662796
I9700096
I-1
tp428
a((F563.8873291015625
F112.84276580810547
tF6.521794319152832
F87.99957275390625
F0.03372395783662796
I9700096
I-1
tp429
a((F37.307270050048828
F114.38140869140625
tF6.3169498443603516
F358.06500244140625
F0.020303515717387199
I7406336
I-1
tp430
a((F37.307270050048828
F114.38140869140625
tF6.3169498443603516
F205.22422790527344
F0.020303515717387199
I7406336
I-1
tp431
a((F19.71632194519043
F118.19158172607422
tF6.7069664001464844
F271.38739013671875
F0.030187308788299561
I11731712
I-1
tp432
a((F19.71632194519043
F118.19158172607422
tF6.7069664001464844
F141.05979919433594
F0.030187308788299561
I11731712
I-1
tp433
a((F53.692138671875
F118.09735870361328
tF5.7566103935241699
F83.554046630859375
F0.037682909518480301
I721664
I-1
tp434
a((F178.81660461425781
F118.95387268066406
tF6.210749626159668
F182.02560424804688
F0.029982132837176323
I6161152
I-1
tp435
a((F254.77236938476562
F120.80501556396484
tF6.4048876762390137
F299.456298828125
F0.038380704820156097
I8389376
I-1
tp436
a((F62.951316833496094
F123.31847381591797
tF6.3495135307312012
F354.77996826171875
F0.031819146126508713
I7799552
I-1
tp437
a((F62.951316833496094
F123.31847381591797
tF6.3495135307312012
F89.107513427734375
F0.031819146126508713
I7799552
I-1
tp438
a((F47.944423675537109
F125.36598205566406
tF5.8896093368530273
F125.86007690429688
F0.033902041614055634
I2360064
I-1
tp439
a((F47.944423675537109
F125.36598205566406
tF5.8896093368530273
F88.13372802734375
F0.033902041614055634
I2360064
I-1
tp440
a((F282.75820922851562
F41.595310211181641
tF7.2538080215454102
F196.97647094726562
F0.029523255303502083
I721153
I-1
tp441
a((F106.27932739257812
F45.522850036621094
tF7.9770140647888184
F337.13275146484375
F0.023652045056223869
I7602433
I-1
tp442
a((F106.27932739257812
F45.522850036621094
tF7.9770140647888184
F192.45362854003906
F0.023652045056223869
I7602433
I-1
tp443
a((F350.1236572265625
F92.34429931640625
tF8.8668661117553711
F288.9261474609375
F0.037229277193546295
I15204609
I-1
tp444
a((F250.09086608886719
F94.08282470703125
tF8.3626985549926758
F288.15582275390625
F0.037602592259645462
I11010305
I-1
tp445
a((F250.09086608886719
F94.08282470703125
tF8.3626985549926758
F57.818817138671875
F0.037602592259645462
I11010305
I-1
tp446
a((F339.23757934570312
F101.58550262451172
tF9.0501842498779297
F167.6156005859375
F0.02060341089963913
I16711937
I-1
tp447
a((F413.64971923828125
F102.28923797607422
tF7.7335114479064941
F187.71943664550781
F0.029262710362672806
I5308673
I-1
tp448
a((F280.53689575195312
F104.43149566650391
tF7.437924861907959
F186.39364624023438
F0.027594275772571564
I2490625
I-1
tp449
a((F38.602489471435547
F109.96373748779297
tF7.9908370971679688
F204.60397338867188
F0.020711090415716171
I7733505
I-1
tp450
a((F389.58981323242188
F117.44715118408203
tF7.7775568962097168
F88.91278076171875
F0.033815421164035797
I5767425
I-1
tp451
a((F89.471145629882812
F124.14786529541016
tF8.3499021530151367
F84.8409423828125
F0.032899588346481323
I10879233
I-1
tp452
a((F47.868572235107422
F48.395889282226562
tF10.377715110778809
F7.8880615234375
F0.023363795131444931
I9896449
I-1
tp453
a((F574.13714599609375
F102.12242126464844
tF9.5339365005493164
F357.21417236328125
F0.029635369777679443
I3736065
I-1
tp454
a((F588.15594482421875
F102.60295867919922
tF10.131340980529785
F358.121337890625
F0.030443454161286354
I8126977
I-1
tp455
a((F400.788818359375
F106.21025085449219
tF10.505244255065918
F185.36003112792969
F0.0227823406457901
I10748417
I-1
tp456
a((F99.738967895507812
F112.24420928955078
tF10.083745002746582
F0.03973388671875
F0.020910987630486488
I7799297
I-1
tp457
a((F99.738967895507812
F112.24420928955078
tF10.083745002746582
F181.5064697265625
F0.020910987630486488
I7799297
I-1
tp458
a((F522.2762451171875
F111.87172698974609
tF9.2849407196044922
F89.694000244140625
F0.016800656914710999
I1835521
I-1
tp459
a((F456.03521728515625
F116.08125305175781
tF9.4250459671020508
F90.18426513671875
F0.033207137137651443
I2949633
I-1
tp460
a((F89.697341918945312
F40.325054168701172
tF13.400117874145508
F245.70683288574219
F0.027573475614190102
I11666177
I-1
tp461
a((F89.697341918945312
F40.325054168701172
tF13.400117874145508
F176.97822570800781
F0.027573475614190102
I11666177
I-1
tp462
a((F72.644554138183594
F48.837306976318359
tF12.18553638458252
F177.95210266113281
F0.020208170637488365
I4784897
I-1
tp463
a((F442.71774291992188
F104.52224731445312
tF11.988094329833984
F9.005767822265625
F0.019439743831753731
I3605249
I-1
tp464
a((F264.26409912109375
F107.49057769775391
tF12.510811805725098
F175.85964965820312
F0.021538726985454559
I6685441
I-1
tp465
a((F75.97900390625
F111.87847137451172
tF11.626437187194824
F352.89862060546875
F0.024307770654559135
I1377025
I-1
tp466
a((F1167.66162109375
F24.543380737304688
tF15.480888366699219
F359.04644775390625
F0.03813982754945755
I5374210
I-1
tp467
a((F1167.66162109375
F24.543380737304688
tF15.480888366699219
F178.61187744140625
F0.03813982754945755
I5374210
I-1
tp468
a((F290.35964965820312
F37.163414001464844
tF16.107498168945312
F233.79556274414062
F0.02673763781785965
I8257794
I-1
tp469
a((F324.46798706054688
F37.989086151123047
tF16.64958381652832
F261.99169921875
F0.027534700930118561
I10682626
I-1
tp470
a((F125.73165130615234
F43.642971038818359
tF17.911539077758789
F252.74189758300781
F0.028478361666202545
I15925506
I-1
tp471
a((F125.73165130615234
F43.642971038818359
tF17.911539077758789
F14.718475341796875
F0.028478361666202545
I15925506
I-1
tp472
a((F286.427734375
F104.03817749023438
tF17.908039093017578
F258.26370239257812
F0.025924637913703918
I15925506
I-1
tp473
a((F421.095703125
F99.408134460449219
tF17.175638198852539
F247.82135009765625
F0.02837718091905117
I12910850
I-1
tp474
a((F370.3773193359375
F104.79385375976562
tF15.157875061035156
F192.14195251464844
F0.016984876245260239
I3866882
I-1
tp475
a((F370.3773193359375
F104.79385375976562
tF15.157875061035156
F23.577606201171875
F0.016984876245260239
I3866882
I-1
tp476
a((F57.364822387695312
F107.79361724853516
tF16.014678955078125
F268.80667114257812
F0.025515118613839149
I7864578
I-1
tp477
a((F57.364822387695312
F107.79361724853516
tF16.014678955078125
F228.76631164550781
F0.025515118613839149
I7864578
I-1
tp478
a((F23.507078170776367
F40.496517181396484
tF19.020784378051758
F271.20510864257812
F0.023330669850111008
I3604994
I-1
tp479
a((F108.23642730712891
F76.829032897949219
tF20.535223007202148
F87.71923828125
F0.0143312718719244
I9110018
I-1
tp480
a((F236.8468017578125
F74.939720153808594
tF20.386951446533203
F259.97149658203125
F0.013604310341179371
I8585730
I-1
tp481
a((F236.8468017578125
F74.939720153808594
tF20.386951446533203
F88.047607421875
F0.013604310341179371
I8585730
I-1
tp482
a((F519.197021484375
F92.552703857421875
tF19.71476936340332
F274.37619018554688
F0.022201539948582649
I6160898
I-1
tp483
a((F556.1907958984375
F103.87007141113281
tF20.556777954101562
F277.86529541015625
F0.021393332630395889
I9175554
I-1
tp484
a((F556.1907958984375
F103.87007141113281
tF20.556777954101562
F99.603302001953125
F0.021393332630395889
I9175554
I-1
tp485
a((F231.08464050292969
F43.997165679931641
tF25.695779800415039
F272.35736083984375
F0.01517796702682972
I8651522
I-1
tp486
a((F304.88729858398438
F73.021743774414062
tF23.124496459960938
F87.18304443359375
F0.0152219133451581
I983810
I-1
tp487
a((F275.10052490234375
F74.967941284179688
tF23.355022430419922
F264.98382568359375
F0.015001869760453701
I1704706
I-1
tp488
a((F275.10052490234375
F74.967941284179688
tF23.355022430419922
F90.62603759765625
F0.015001869760453701
I1704706
I-1
tp489
a.