(lp1
((F282.98287963867188
F46.878627777099609
tF4.2604532241821289
F89.65509033203125
F0.017098082229495049
I12321024
I-1
tp2
a((F111.67538452148438
F23.66358757019043
tF5.0452423095703125
F201.73745727539062
F0.02841549925506115
I7864832
I-1
tp3
a((F175.92547607421875
F25.39166259765625
tF5.2111773490905762
F203.16752624511719
F0.026604283601045609
I10224128
I-1
tp4
a((F249.24024963378906
F32.320182800292969
tF5.0438766479492188
F152.63150024414062
F0.016946526244282722
I7864832
I-1
tp5
a((F73.404052734375
F33.394992828369141
tF4.5702972412109375
F166.10084533691406
F0.018522204831242561
I721408
I-1
tp6
a((F285.13558959960938
F34.386356353759766
tF5.2283506393432617
F284.62799072265625
F0.020460503175854683
I10420736
I-1
tp7
a((F136.7152099609375
F39.645431518554688
tF5.0539126396179199
F329.8607177734375
F0.024203287437558174
I7995904
I-1
tp8
a((F280.4034423828125
F40.823558807373047
tF5.1566100120544434
F330.68316650390625
F0.022633343935012817
I9437696
I-1
tp9
a((F280.4034423828125
F40.823558807373047
tF5.1566100120544434
F272.260498046875
F0.022633343935012817
I9437696
I-1
tp10
a((F130.11590576171875
F42.198299407958984
tF5.5540919303894043
F3.724334716796875
F0.023707374930381775
I14811648
I-1
tp11
a((F130.11590576171875
F42.198299407958984
tF5.5540919303894043
F137.52435302734375
F0.023707374930381775
I14811648
I-1
tp12
a((F307.15957641601562
F43.723960876464844
tF5.3234796524047852
F358.37338256835938
F0.027806920930743217
I11731456
I-1
tp13
a((F307.15957641601562
F43.723960876464844
tF5.3234796524047852
F181.14976501464844
F0.027806920930743217
I11731456
I-1
tp14
a((F141.96150207519531
F48.458847045898438
tF4.6696186065673828
F150.14326477050781
F0.025141321122646332
I2294272
I-1
tp15
a((F192.86686706542969
F51.75439453125
tF5.5363330841064453
F229.49105834960938
F0.024776536971330643
I14615040
I-1
tp16
a((F88.64263916015625
F61.124374389648438
tF5.4132566452026367
F79.107696533203125
F0.019604789093136787
I12976640
I-1
tp17
a((F153.74824523925781
F26.627569198608398
tF6.3518843650817871
F353.51260375976562
F0.030998239293694496
I7799552
I-1
tp18
a((F153.74824523925781
F26.627569198608398
tF6.3518843650817871
F188.76226806640625
F0.030998239293694496
I7799552
I-1
tp19
a((F188.7100830078125
F28.573854446411133
tF5.8235316276550293
F65.165069580078125
F0.025687728077173233
I1508096
I-1
tp20
a((F307.13906860351562
F37.264839172363281
tF5.9250092506408691
F349.7445068359375
F0.028667373582720757
I2753280
I-1
tp21
a((F327.72113037109375
F37.902664184570312
tF6.218656063079834
F355.64581298828125
F0.03026038222014904
I6292224
I-1
tp22
a((F327.72113037109375
F37.902664184570312
tF6.218656063079834
F184.46684265136719
F0.03026038222014904
I6292224
I-1
tp23
a((F146.707275390625
F42.506301879882812
tF5.8969254493713379
F320.0994873046875
F0.023684468120336533
I2425600
I-1
tp24
a((F146.707275390625
F42.506301879882812
tF5.8969254493713379
F189.52200317382812
F0.023684468120336533
I2425600
I-1
tp25
a((F292.58248901367188
F44.437614440917969
tF6.3025236129760742
F328.49932861328125
F0.026773849502205849
I7275264
I-1
tp26
a((F71.919464111328125
F51.874469757080078
tF5.9610304832458496
F199.22311401367188
F0.019283633679151535
I3212032
I-1
tp27
a((F246.91709899902344
F53.288673400878906
tF6.7598519325256348
F287.66131591796875
F0.021394390612840652
I12321536
I-1
tp28
a((F246.91709899902344
F53.288673400878906
tF6.7598519325256348
F189.75582885742188
F0.021394390612840652
I12321536
I-1
tp29
a((F200.55751037597656
F55.072113037109375
tF5.8042635917663574
F38.008270263671875
F0.020417584106326103
I1311488
I-1
tp30
a((F280.21444702148438
F54.567539215087891
tF6.2887387275695801
F86.215667724609375
F0.027895053848624229
I7078656
I-1
tp31
a((F101.79902648925781
F57.181552886962891
tF5.7774505615234375
F22.507049560546875
F0.029440890997648239
I983808
I-1
tp32
a((F123.34661865234375
F57.777523040771484
tF5.7656264305114746
F172.89115905761719
F0.032155338674783707
I787200
I-1
tp33
a((F123.34661865234375
F57.777523040771484
tF5.7656264305114746
F11.717529296875
F0.032155338674783707
I787200
I-1
tp34
a((F272.3406982421875
F58.714847564697266
tF5.9921126365661621
F139.45906066894531
F0.027397125959396362
I3605248
I-1
tp35
a((F254.06015014648438
F58.844772338867188
tF6.2050971984863281
F37.4537353515625
F0.027199976146221161
I6095616
I-1
tp36
a((F309.01736450195312
F60.022186279296875
tF6.7943353652954102
F156.90524291992188
F0.03144817054271698
I12649216
I-1
tp37
a((F240.51235961914062
F60.717460632324219
tF6.4051451683044434
F287.180908203125
F0.027763387188315392
I8389376
I-1
tp38
a((F240.51235961914062
F60.717460632324219
tF6.4051451683044434
F105.56581115722656
F0.027763387188315392
I8389376
I-1
tp39
a((F206.28300476074219
F62.242088317871094
tF6.0497565269470215
F293.64404296875
F0.02214416116476059
I4260608
I-1
tp40
a((F206.28300476074219
F62.242088317871094
tF6.0497565269470215
F81.0986328125
F0.02214416116476059
I4260608
I-1
tp41
a((F287.59967041015625
F61.715530395507812
tF6.234616756439209
F73.89080810546875
F0.025181803852319717
I6488832
I-1
tp42
a((F77.49951171875
F25.712753295898438
tF8.8180751800537109
F356.32232666015625
F0.038329340517520905
I14811393
I-1
tp43
a((F254.23486328125
F26.621175765991211
tF7.3514761924743652
F159.508544921875
F0.034415449947118759
I1638657
I-1
tp44
a((F126.40590667724609
F27.416852951049805
tF8.2885122299194336
F323.91897583007812
F0.037115596234798431
I10354945
I-1
tp45
a((F197.83833312988281
F34.567901611328125
tF7.7034273147583008
F217.81863403320312
F0.025521978735923767
I5046529
I-1
tp46
a((F197.83833312988281
F34.567901611328125
tF7.7034273147583008
F75.103363037109375
F0.025521978735923767
I5046529
I-1
tp47
a((F271.2034912109375
F45.794162750244141
tF7.3952598571777344
F210.16755676269531
F0.027949700132012367
I2097409
I-1
tp48
a((F246.55705261230469
F52.234588623046875
tF7.4199676513671875
F273.12863159179688
F0.021237554028630257
I2359553
I-1
tp49
a((F246.55705261230469
F52.234588623046875
tF7.4199676513671875
F191.13095092773438
F0.021237554028630257
I2359553
I-1
tp50
a((F298.31060791015625
F53.712062835693359
tF7.4917054176330566
F166.01652526855469
F0.020299836993217468
I3014913
I-1
tp51
a((F150.86128234863281
F57.975105285644531
tF8.3316373825073242
F144.41302490234375
F0.035967174917459488
I10748161
I-1
tp52
a((F188.98429870605469
F59.514659881591797
tF8.1960172653198242
F209.69203186035156
F0.034670092165470123
I9502977
I-1
tp53
a((F188.98429870605469
F59.514659881591797
tF8.1960172653198242
F98.895904541015625
F0.034670092165470123
I9502977
I-1
tp54
a((F326.5906982421875
F59.385528564453125
tF7.4355692863464355
F83.195037841796875
F0.033288009464740753
I2490625
I-1
tp55
a((F326.5906982421875
F59.385528564453125
tF7.4355692863464355
F5.64410400390625
F0.033288009464740753
I2490625
I-1
tp56
a((F183.89067077636719
F43.180126190185547
tF11.212056159973145
F225.23335266113281
F0.021948685869574547
I15467009
I-1
tp57
a((F91.407966613769531
F48.364528656005859
tF10.254633903503418
F350.56338500976562
F0.023145474493503571
I9044481
I-1
tp58
a((F91.407966613769531
F48.364528656005859
tF10.254633903503418
F202.31155395507812
F0.023145474493503571
I9044481
I-1
tp59
a((F274.62713623046875
F47.109096527099609
tF24.903867721557617
F279.25897216796875
F0.022086808457970619
I6357762
I-1
tp60
a.