(lp1
((F446.16818237304688
F10.862517356872559
tF2.1618821620941162
F165.86822509765625
F0.016697254031896591
I13435391
I-1
tp2
a((F516.06671142578125
F40.530941009521484
tF1.9670438766479492
F347.66839599609375
F0.014092372730374336
I6554111
I-1
tp3
a((F35.918315887451172
F61.415473937988281
tF2.1356148719787598
F31.6923828125
F0.014179065823554993
I12517887
I-1
tp4
a((F262.28866577148438
F29.660825729370117
tF4.0659365653991699
F335.415771484375
F0.015155517496168613
I8978688
I-1
tp5
a((F210.21734619140625
F33.230300903320312
tF4.4804930686950684
F204.12294006347656
F0.013990416191518307
I15991040
I-1
tp6
a((F280.36489868164062
F38.239761352539062
tF4.5212359428405762
F359.56430053710938
F0.013457924127578735
I16646400
I-1
tp7
a((F280.36489868164062
F38.239761352539062
tF4.5212359428405762
F189.52642822265625
F0.013457924127578735
I16646400
I-1
tp8
a((F530.55352783203125
F13.493680000305176
tF5.4572501182556152
F356.08474731445312
F0.0251727644354105
I13566464
I-1
tp9
a((F530.55352783203125
F13.493680000305176
tF5.4572501182556152
F184.02960205078125
F0.0251727644354105
I13566464
I-1
tp10
a((F151.70045471191406
F17.912261962890625
tF4.3549790382385254
F188.82072448730469
F0.015032554976642132
I13959424
I-1
tp11
a((F377.4315185546875
F20.605613708496094
tF5.1518445014953613
F68.121856689453125
F0.016018448397517204
I9372160
I-1
tp12
a((F494.4727783203125
F21.401233673095703
tF4.8489766120910645
F200.53192138671875
F0.017241394147276878
I4981248
I-1
tp13
a((F462.291748046875
F28.379573822021484
tF5.4115972518920898
F3.189239501953125
F0.021099628880620003
I12911104
I-1
tp14
a((F462.291748046875
F28.379573822021484
tF5.4115972518920898
F178.85877990722656
F0.021099628880620003
I12911104
I-1
tp15
a((F508.39175415039062
F29.487949371337891
tF5.3001885414123535
F338.73849487304688
F0.024087747558951378
I11403776
I-1
tp16
a((F133.22947692871094
F31.864231109619141
tF5.5461854934692383
F336.11575317382812
F0.015855750069022179
I14680576
I-1
tp17
a((F227.87759399414062
F34.331184387207031
tF4.9138569831848145
F338.18112182617188
F0.016371143981814384
I5964288
I-1
tp18
a((F266.12582397460938
F40.379180908203125
tF5.3465380668640137
F329.76901245117188
F0.017904767766594887
I12059136
I-1
tp19
a((F266.12582397460938
F40.379180908203125
tF5.3465380668640137
F154.7930908203125
F0.017904767766594887
I12059136
I-1
tp20
a((F370.01187133789062
F40.013210296630859
tF5.3277864456176758
F0.572540283203125
F0.020627213642001152
I11796992
I-1
tp21
a((F370.01187133789062
F40.013210296630859
tF5.3277864456176758
F180.01847839355469
F0.020627213642001152
I11796992
I-1
tp22
a((F274.48294067382812
F42.772361755371094
tF4.7594079971313477
F321.76449584960938
F0.014611879363656044
I3670528
I-1
tp23
a((F530.34259033203125
F42.470722198486328
tF5.0879931449890137
F180.87724304199219
F0.024533798918128014
I8454656
I-1
tp24
a((F248.94743347167969
F46.921367645263672
tF4.9590797424316406
F0.78033447265625
F0.017738716676831245
I6619648
I-1
tp25
a((F248.94743347167969
F46.921367645263672
tF4.9590797424316406
F181.84500122070312
F0.017738716676831245
I6619648
I-1
tp26
a((F270.55648803710938
F48.762248992919922
tF4.8495383262634277
F155.84567260742188
F0.016769114881753922
I4981248
I-1
tp27
a((F516.19537353515625
F54.270103454589844
tF5.5686655044555664
F147.31596374511719
F0.029800787568092346
I15008256
I-1
tp28
a((F53.386173248291016
F62.894931793212891
tF5.4210991859436035
F159.91207885742188
F0.013668965548276901
I13042176
I-1
tp29
a((F451.26254272460938
F12.236234664916992
tF6.944242000579834
F262.20806884765625
F0.029337154701352119
I14287616
I-1
tp30
a((F451.26254272460938
F12.236234664916992
tF6.944242000579834
F112.43865966796875
F0.029337154701352119
I14287616
I-1
tp31
a((F358.795166015625
F13.332016944885254
tF6.7988829612731934
F263.02041625976562
F0.028078053146600723
I12714752
I-1
tp32
a((F382.73455810546875
F13.051981925964355
tF6.7805404663085938
F278.53890991210938
F0.027112150564789772
I12518144
I-1
tp33
a((F382.73455810546875
F13.051981925964355
tF6.7805404663085938
F65.386016845703125
F0.027112150564789772
I12518144
I-1
tp34
a((F419.27606201171875
F12.752826690673828
tF6.9027109146118164
F273.8775634765625
F0.028330063447356224
I13828864
I-1
tp35
a((F419.27606201171875
F12.752826690673828
tF6.9027109146118164
F93.16156005859375
F0.028330063447356224
I13828864
I-1
tp36
a((F323.34552001953125
F13.742120742797852
tF5.7110457420349121
F277.85211181640625
F0.029662681743502617
I131840
I-1
tp37
a((F323.34552001953125
F13.742120742797852
tF5.7110457420349121
F66.565887451171875
F0.029662681743502617
I131840
I-1
tp38
a((F194.08694458007812
F16.063142776489258
tF6.4846587181091309
F277.6414794921875
F0.030008280649781227
I9306880
I-1
tp39
a((F194.08694458007812
F16.063142776489258
tF6.4846587181091309
F69.3807373046875
F0.030008280649781227
I9306880
I-1
tp40
a((F281.32260131835938
F16.048734664916992
tF5.7848300933837891
F190.40374755859375
F0.017938153818249702
I1049344
I-1
tp41
a((F431.33230590820312
F18.331747055053711
tF6.5753273963928223
F304.85986328125
F0.027134282514452934
I10289920
I-1
tp42
a((F431.33230590820312
F18.331747055053711
tF6.5753273963928223
F140.57380676269531
F0.027134282514452934
I10289920
I-1
tp43
a((F402.18197631835938
F18.950881958007812
tF6.5929808616638184
F227.75007629394531
F0.023625189438462257
I10486528
I-1
tp44
a((F470.63214111328125
F21.210779190063477
tF6.5921797752380371
F67.77001953125
F0.017094535753130913
I10486528
I-1
tp45
a((F302.22216796875
F22.401599884033203
tF6.3381509780883789
F114.01156616210938
F0.017973762005567551
I7668480
I-1
tp46
a((F362.957763671875
F21.924612045288086
tF6.0783548355102539
F110.43409729003906
F0.019677320495247841
I4653824
I-1
tp47
a((F62.931781768798828
F26.010456085205078
tF6.8279733657836914
F351.37661743164062
F0.013725796714425087
I13042432
I-1
tp48
a((F281.08038330078125
F27.274314880371094
tF6.1544833183288574
F4.176361083984375
F0.016405258327722549
I5505792
I-1
tp49
a((F281.08038330078125
F27.274314880371094
tF6.1544833183288574
F185.55661010742188
F0.016405258327722549
I5505792
I-1
tp50
a((F434.7799072265625
F27.566127777099609
tF6.3368959426879883
F353.23095703125
F0.022935928776860237
I7668480
I-1
tp51
a((F398.3524169921875
F28.502254486083984
tF6.5090088844299316
F188.68087768554688
F0.023178879171609879
I9569024
I-1
tp52
a((F398.3524169921875
F28.502254486083984
tF6.5090088844299316
F20.92132568359375
F0.023178879171609879
I9569024
I-1
tp53
a((F310.01199340820312
F29.725746154785156
tF5.9315686225891113
F177.3070068359375
F0.017424352467060089
I2884352
I-1
tp54
a((F310.01199340820312
F29.725746154785156
tF5.9315686225891113
F6.275054931640625
F0.017424352467060089
I2884352
I-1
tp55
a((F273.00155639648438
F33.215415954589844
tF6.7943015098571777
F330.0677490234375
F0.014594430103898048
I12649216
I-1
tp56
a((F106.24755096435547
F34.129344940185547
tF5.7250819206237793
F160.23211669921875
F0.01594264805316925
I328448
I-1
tp57
a((F256.71994018554688
F35.036293029785156
tF5.8758559226989746
F149.71478271484375
F0.014557751826941967
I2163456
I-1
tp58
a((F219.21366882324219
F37.853275299072266
tF6.8972296714782715
F285.62335205078125
F0.025802416726946831
I13763328
I-1
tp59
a((F397.87667846679688
F42.065593719482422
tF6.3764820098876953
F173.61874389648438
F0.023872943595051765
I8061696
I-1
tp60
a((F538.5762939453125
F48.023647308349609
tF6.7993354797363281
F278.421875
F0.019140766933560371
I12714752
I-1
tp61
a((F428.64291381835938
F54.739021301269531
tF6.959113597869873
F60.272308349609375
F0.025828881189227104
I14418688
I-1
tp62
a((F428.64291381835938
F54.739021301269531
tF6.959113597869873
F39.53851318359375
F0.025828881189227104
I14418688
I-1
tp63
a((F482.63906860351562
F56.794422149658203
tF6.2657961845397949
F188.52755737304688
F0.026370137929916382
I6816512
I-1
tp64
a((F482.63906860351562
F56.794422149658203
tF6.2657961845397949
F32.0150146484375
F0.026370137929916382
I6816512
I-1
tp65
a((F235.04248046875
F58.361423492431641
tF5.7586069107055664
F138.35540771484375
F0.021024448797106743
I721664
I-1
tp66
a((F309.27337646484375
F57.992450714111328
tF6.3757281303405762
F176.38496398925781
F0.021231889724731445
I8061696
I-1
tp67
a((F309.27337646484375
F57.992450714111328
tF6.3757281303405762
F5.789764404296875
F0.021231889724731445
I8061696
I-1
tp68
a((F248.94355773925781
F59.402935028076172
tF6.2641539573669434
F4.506195068359375
F0.016263661906123161
I6816512
I-1
tp69
a((F119.89836120605469
F59.668361663818359
tF5.8279786109924316
F162.45027160644531
F0.016926893964409828
I1573632
I-1
tp70
a((F119.89836120605469
F59.668361663818359
tF5.8279786109924316
F5.2095947265625
F0.016926893964409828
I1573632
I-1
tp71
a((F180.10446166992188
F59.435726165771484
tF6.6888995170593262
F177.52540588378906
F0.01873604953289032
I11535104
I-1
tp72
a((F200.99076843261719
F59.939163208007812
tF6.9502367973327637
F191.23709106445312
F0.020069131627678871
I14353152
I-1
tp73
a((F473.87393188476562
F11.911783218383789
tF7.4708290100097656
F276.4630126953125
F0.030404454097151756
I2818305
I-1
tp74
a((F473.87393188476562
F11.911783218383789
tF7.4708290100097656
F60.377960205078125
F0.030404454097151756
I2818305
I-1
tp75
a((F99.277580261230469
F20.03706169128418
tF7.7566637992858887
F300.52957153320312
F0.026665957644581795
I5570817
I-1
tp76
a((F471.46176147460938
F22.172878265380859
tF7.4533052444458008
F60.222320556640625
F0.016926141455769539
I2687233
I-1
tp77
a((F319.79928588867188
F23.82213020324707
tF7.7214431762695312
F57.38189697265625
F0.015684142708778381
I5243137
I-1
tp78
a((F142.17222595214844
F27.702051162719727
tF8.7103796005249023
F334.44720458984375
F0.015074103139340878
I13959425
I-1
tp79
a((F509.15374755859375
F41.869781494140625
tF9.0379400253295898
F340.55581665039062
F0.029021842405200005
I16580865
I-1
tp80
a((F521.00579833984375
F40.921516418457031
tF8.2383108139038086
F340.33163452148438
F0.023765292018651962
I9896193
I-1
tp81
a((F211.17059326171875
F45.926479339599609
tF9.0554885864257812
F82.223480224609375
F0.029036546126008034
I66049
I-1
tp82
a((F227.7972412109375
F45.916965484619141
tF8.8049993515014648
F340.92236328125
F0.027099227532744408
I14745857
I-1
tp83
a((F227.7972412109375
F45.916965484619141
tF8.8049993515014648
F97.207305908203125
F0.027099227532744408
I14745857
I-1
tp84
a((F240.33302307128906
F45.818214416503906
tF7.7056059837341309
F341.20535278320312
F0.018654219806194305
I5046529
I-1
tp85
a((F35.386856079101562
F56.307636260986328
tF8.6555891036987305
F149.24871826171875
F0.025701373815536499
I13500673
I-1
tp86
a((F370.16351318359375
F55.452327728271484
tF7.5533227920532227
F176.38409423828125
F0.020840594545006752
I3604737
I-1
tp87
a((F370.16351318359375
F55.452327728271484
tF7.5533227920532227
F6.457855224609375
F0.020840594545006752
I3604737
I-1
tp88
a((F97.758377075195312
F60.782039642333984
tF7.5467324256896973
F57.90069580078125
F0.022059593349695206
I3539201
I-1
tp89
a((F462.6199951171875
F13.666904449462891
tF10.588702201843262
F268.6611328125
F0.030118212103843689
I11338241
I-1
tp90
a((F310.12530517578125
F15.454686164855957
tF9.9246816635131836
F268.70843505859375
F0.030998740345239639
I6685185
I-1
tp91
a((F180.40757751464844
F17.609922409057617
tF10.458174705505371
F268.878173828125
F0.030391696840524673
I10420737
I-1
tp92
a((F220.42024230957031
F19.58819580078125
tF9.0107707977294922
F337.82861328125
F0.029403554275631905
I16384257
I-1
tp93
a((F220.42024230957031
F19.58819580078125
tF9.0107707977294922
F204.63943481445312
F0.029403554275631905
I16384257
I-1
tp94
a((F253.61531066894531
F19.721565246582031
tF9.8486213684082031
F322.73287963867188
F0.02937745675444603
I6095361
I-1
tp95
a((F253.61531066894531
F19.721565246582031
tF9.8486213684082031
F184.20133972167969
F0.02937745675444603
I6095361
I-1
tp96
a((F125.0582275390625
F21.325977325439453
tF9.1519327163696289
F326.82095336914062
F0.028767179697751999
I786945
I-1
tp97
a((F19.892353057861328
F24.752199172973633
tF10.316960334777832
F336.81390380859375
F0.030362796038389206
I9437697
I-1
tp98
a((F19.892353057861328
F24.752199172973633
tF10.316960334777832
F181.45272827148438
F0.030362796038389206
I9437697
I-1
tp99
a((F52.516933441162109
F23.66685676574707
tF9.6331930160522461
F204.8096923828125
F0.02550216019153595
I4522497
I-1
tp100
a((F449.22100830078125
F26.162714004516602
tF11.484468460083008
F132.50790405273438
F0.018723640590906143
I525057
I-1
tp101
a((F36.143524169921875
F29.215167999267578
tF11.304987907409668
F339.17141723632812
F0.01621801033616066
I16056833
I-1
tp102
a((F36.143524169921875
F29.215167999267578
tF11.304987907409668
F202.70001220703125
F0.01621801033616066
I16056833
I-1
tp103
a((F490.94058227539062
F42.048988342285156
tF9.8179712295532227
F199.85261535644531
F0.030150001868605614
I5898753
I-1
tp104
a((F260.52944946289062
F51.236042022705078
tF9.5044059753417969
F149.82958984375
F0.015952277928590775
I3539457
I-1
tp105
a((F500.41265869140625
F54.371242523193359
tF10.601248741149902
F99.79193115234375
F0.020621160045266151
I11403777
I-1
tp106
a((F500.41265869140625
F54.371242523193359
tF10.601248741149902
F74.471893310546875
F0.020621160045266151
I11403777
I-1
tp107
a((F278.0557861328125
F57.026653289794922
tF9.2204780578613281
F1.32293701171875
F0.034468814730644226
I1311233
I-1
tp108
a((F278.0557861328125
F57.026653289794922
tF9.2204780578613281
F144.14736938476562
F0.034468814730644226
I1311233
I-1
tp109
a((F148.76881408691406
F58.192440032958984
tF9.3218564987182617
F1.429107666015625
F0.031303804367780685
I2163201
I-1
tp110
a((F148.76881408691406
F58.192440032958984
tF9.3218564987182617
F145.06170654296875
F0.031303804367780685
I2163201
I-1
tp111
a((F219.83616638183594
F58.207611083984375
tF10.3455810546875
F87.51361083984375
F0.017401434481143951
I9699841
I-1
tp112
a((F384.447998046875
F27.405170440673828
tF11.878954887390137
F177.18997192382812
F0.017996804788708687
I2949889
I-1
tp113
a((F384.447998046875
F27.405170440673828
tF11.878954887390137
F45.45098876953125
F0.017996804788708687
I2949889
I-1
tp114
a((F168.28659057617188
F30.288970947265625
tF11.495604515075684
F130.97108459472656
F0.016426529735326767
I590593
I-1
tp115
a((F294.78790283203125
F46.605503082275391
tF13.429328918457031
F359.45565795898438
F0.013948765583336353
I11797249
I-1
tp116
a((F416.54986572265625
F36.457538604736328
tF16.262960433959961
F285.78878784179688
F0.023050013929605484
I8978690
I-1
tp117
a((F416.54986572265625
F36.457538604736328
tF16.262960433959961
F168.8558349609375
F0.023050013929605484
I8978690
I-1
tp118
a((F416.54986572265625
F36.457538604736328
tF16.262960433959961
F142.33596801757812
F0.023050013929605484
I8978690
I-1
tp119
a((F416.54986572265625
F36.457538604736328
tF16.262960433959961
F37.37811279296875
F0.023050013929605484
I8978690
I-1
tp120
a((F416.54986572265625
F36.457538604736328
tF16.262960433959961
F13.879852294921875
F0.023050013929605484
I8978690
I-1
tp121
a((F88.27923583984375
F41.116439819335938
tF16.72450065612793
F277.60018920898438
F0.022725304588675499
I11010306
I-1
tp122
a((F499.28079223632812
F39.167457580566406
tF20.565401077270508
F90.868804931640625
F0.021307757124304771
I9241090
I-1
tp123
a.