(lp1
((F88.565177917480469
F25.301969528198242
tF1.9738253355026245
F288.282958984375
F0.016201980412006378
I6816255
I-1
tp2
a((F250.01884460449219
F42.307918548583984
tF2.186866283416748
F359.41940307617188
F0.01546369306743145
I14221823
I-1
tp3
a((F295.01043701171875
F56.176715850830078
tF1.9333356618881226
F318.40164184570312
F0.015966804698109627
I5308927
I-1
tp4
a((F279.53558349609375
F59.0072021484375
tF2.2380084991455078
F23.14202880859375
F0.013552385382354259
I15925759
I-1
tp5
a((F26.173042297363281
F49.392200469970703
tF2.4264936447143555
F0.893890380859375
F0.019638329744338989
I5047039
I-1
tp6
a((F223.30593872070312
F9.8014965057373047
tF2.6633965969085693
F268.44940185546875
F0.015386356972157955
I11797247
I-1
tp7
a((F337.523681640625
F15.034639358520508
tF3.2541751861572266
F337.43402099609375
F0.031519532203674316
I9569279
I-1
tp8
a((F337.523681640625
F15.034639358520508
tF3.2541751861572266
F203.72666931152344
F0.031519532203674316
I9569279
I-1
tp9
a((F113.69818878173828
F17.606433868408203
tF3.3022091388702393
F203.04035949707031
F0.025987783446907997
I10617855
I-1
tp10
a((F118.58839416503906
F21.683813095092773
tF3.4510600566864014
F301.83807373046875
F0.015551154501736164
I13829119
I-1
tp11
a((F270.21026611328125
F22.805986404418945
tF2.4715640544891357
F292.181884765625
F0.013603056780993938
I6357759
I-1
tp12
a((F117.9805908203125
F34.467411041259766
tF3.2430019378662109
F57.2152099609375
F0.015893308445811272
I9307135
I-1
tp13
a((F117.9805908203125
F34.467411041259766
tF3.2430019378662109
F7.64727783203125
F0.015893308445811272
I9307135
I-1
tp14
a((F343.28097534179688
F18.563730239868164
tF4.2065262794494629
F320.75094604492188
F0.015851927921175957
I11403520
I-1
tp15
a((F251.57203674316406
F22.459894180297852
tF3.647843599319458
F241.39535522460938
F0.013703007251024246
I1114368
I-1
tp16
a((F80.143035888671875
F22.704303741455078
tF4.3692140579223633
F269.0950927734375
F0.013788012787699699
I14156032
I-1
tp17
a((F343.91455078125
F24.903219223022461
tF3.9329872131347656
F313.02597045898438
F0.024290252476930618
I6553856
I-1
tp18
a((F343.91455078125
F24.903219223022461
tF3.9329872131347656
F42.31573486328125
F0.024290252476930618
I6553856
I-1
tp19
a((F283.14663696289062
F48.97247314453125
tF4.0384688377380371
F170.84536743164062
F0.026113742962479591
I8454400
I-1
tp20
a((F283.14663696289062
F48.97247314453125
tF4.0384688377380371
F6.405181884765625
F0.026113742962479591
I8454400
I-1
tp21
a((F241.67774963378906
F55.992263793945312
tF4.1044507026672363
F160.53805541992188
F0.013778871856629848
I9634048
I-1
tp22
a((F44.014213562011719
F73.297325134277344
tF4.7591338157653809
F89.165557861328125
F0.014860868453979492
I3670528
I-1
tp23
a((F331.22207641601562
F17.129688262939453
tF4.7887067794799805
F220.98394775390625
F0.015304424799978733
I4063744
I-1
tp24
a((F153.64964294433594
F22.042972564697266
tF4.5361313819885254
F282.8546142578125
F0.013794007711112499
I197120
I-1
tp25
a((F343.94696044921875
F32.349239349365234
tF5.4832549095153809
F25.434417724609375
F0.018093211576342583
I13894144
I-1
tp26
a((F138.37881469726562
F42.768642425537109
tF4.9674234390258789
F10.1173095703125
F0.014679939486086369
I6750720
I-1
tp27
a((F277.12643432617188
F46.617645263671875
tF5.1845831871032715
F180.32164001464844
F0.027039557695388794
I9830912
I-1
tp28
a((F193.88224792480469
F48.852962493896484
tF5.5985493659973145
F179.94711303710938
F0.014105909503996372
I15401472
I-1
tp29
a((F344.09262084960938
F54.046470642089844
tF5.5072307586669922
F326.60906982421875
F0.019151564687490463
I14221824
I-1
tp30
a((F194.09884643554688
F59.127460479736328
tF4.7865748405456543
F178.71397399902344
F0.014853973872959614
I4063744
I-1
tp31
a((F51.888870239257812
F66.895858764648438
tF5.5786657333374023
F277.31832885742188
F0.035919636487960815
I15139328
I-1
tp32
a((F51.888870239257812
F66.895858764648438
tF5.5786657333374023
F85.126922607421875
F0.035919636487960815
I15139328
I-1
tp33
a((F229.94071960449219
F14.516473770141602
tF6.1239829063415527
F274.72293090820312
F0.035253427922725677
I5178112
I-1
tp34
a((F229.94071960449219
F14.516473770141602
tF6.1239829063415527
F77.477325439453125
F0.035253427922725677
I5178112
I-1
tp35
a((F314.52639770507812
F28.785274505615234
tF6.4915261268615723
F314.58062744140625
F0.031474743038415909
I9372416
I-1
tp36
a((F156.80955505371094
F30.23375129699707
tF6.9026718139648438
F297.49575805664062
F0.032450340688228607
I13828864
I-1
tp37
a((F272.3358154296875
F29.960887908935547
tF6.705477237701416
F304.7890625
F0.032466970384120941
I11731712
I-1
tp38
a((F283.05722045898438
F32.064430236816406
tF5.9835085868835449
F323.8541259765625
F0.02408851683139801
I3474176
I-1
tp39
a((F283.05722045898438
F32.064430236816406
tF5.9835085868835449
F214.49833679199219
F0.02408851683139801
I3474176
I-1
tp40
a((F135.06443786621094
F34.066669464111328
tF6.911712646484375
F233.60696411132812
F0.027850495651364326
I13894400
I-1
tp41
a((F135.06443786621094
F34.066669464111328
tF6.911712646484375
F37.151214599609375
F0.027850495651364326
I13894400
I-1
tp42
a((F327.97579956054688
F34.088569641113281
tF7.0169119834899902
F167.9923095703125
F0.028402229771018028
I15008512
I-1
tp43
a((F319.56851196289062
F37.029270172119141
tF6.376136302947998
F342.99798583984375
F0.031014127656817436
I8061696
I-1
tp44
a((F319.56851196289062
F37.029270172119141
tF6.376136302947998
F165.24807739257812
F0.031014127656817436
I8061696
I-1
tp45
a((F230.36018371582031
F40.671909332275391
tF6.1490592956542969
F277.80227661132812
F0.03472403809428215
I5440256
I-1
tp46
a((F230.36018371582031
F40.671909332275391
tF6.1490592956542969
F82.371917724609375
F0.03472403809428215
I5440256
I-1
tp47
a((F238.13909912109375
F46.812084197998047
tF6.215423583984375
F170.97596740722656
F0.018489895388484001
I6226688
I-1
tp48
a((F283.31842041015625
F58.663051605224609
tF6.6426920890808105
F142.22288513183594
F0.022108562290668488
I11076352
I-1
tp49
a((F283.31842041015625
F58.663051605224609
tF6.6426920890808105
F33.83453369140625
F0.022108562290668488
I11076352
I-1
tp50
a((F35.394527435302734
F58.692913055419922
tF6.7510027885437012
F282.25665283203125
F0.022009868174791336
I12190464
I-1
tp51
a((F201.15690612792969
F62.746227264404297
tF6.778111457824707
F174.02548217773438
F0.034970410168170929
I12518144
I-1
tp52
a((F201.15690612792969
F62.746227264404297
tF6.778111457824707
F6.308135986328125
F0.034970410168170929
I12518144
I-1
tp53
a((F202.38369750976562
F16.743400573730469
tF8.0500173568725586
F263.21304321289062
F0.033498771488666534
I8257793
I-1
tp54
a((F202.38369750976562
F16.743400573730469
tF8.0500173568725586
F187.94619750976562
F0.033498771488666534
I8257793
I-1
tp55
a((F24.637283325195312
F20.507431030273438
tF7.9352989196777344
F188.4508056640625
F0.03059685043990612
I7209217
I-1
tp56
a((F129.6182861328125
F25.370328903198242
tF8.3430643081665039
F241.11038208007812
F0.01521760132163763
I10813697
I-1
tp57
a((F251.50740051269531
F30.462068557739258
tF7.4928603172302246
F228.44967651367188
F0.031828302890062332
I3014913
I-1
tp58
a((F293.91900634765625
F30.08277702331543
tF7.2417960166931152
F231.2681884765625
F0.031467240303754807
I590081
I-1
tp59
a((F122.73027038574219
F38.669593811035156
tF8.0200138092041016
F22.39898681640625
F0.02584109827876091
I7995649
I-1
tp60
a((F211.87724304199219
F50.666774749755859
tF8.4063072204589844
F84.829742431640625
F0.021869795396924019
I11337985
I-1
tp61
a((F211.87724304199219
F50.666774749755859
tF8.4063072204589844
F49.24151611328125
F0.021869795396924019
I11337985
I-1
tp62
a((F211.87724304199219
F50.666774749755859
tF8.4063072204589844
F13.2545166015625
F0.021869795396924019
I11337985
I-1
tp63
a((F122.91443634033203
F54.393844604492188
tF8.0572280883789062
F345.95504760742188
F0.026638176292181015
I8323329
I-1
tp64
a((F122.91443634033203
F54.393844604492188
tF8.0572280883789062
F171.87409973144531
F0.026638176292181015
I8323329
I-1
tp65
a((F35.998687744140625
F57.644824981689453
tF7.7270293235778809
F283.44189453125
F0.022180445492267609
I5243137
I-1
tp66
a((F55.784564971923828
F57.275211334228516
tF8.4769058227539062
F175.36639404296875
F0.01761254109442234
I11993345
I-1
tp67
a((F251.15324401855469
F59.401180267333984
tF7.2494440078735352
F309.9794921875
F0.032618574798107147
I655617
I-1
tp68
a((F251.15324401855469
F59.401180267333984
tF7.2494440078735352
F133.75328063964844
F0.032618574798107147
I655617
I-1
tp69
a((F272.36163330078125
F59.94989013671875
tF7.4257416725158691
F52.3843994140625
F0.032801926136016846
I2425089
I-1
tp70
a((F314.50399780273438
F59.637405395507812
tF7.6042633056640625
F50.701263427734375
F0.032056801021099091
I4129025
I-1
tp71
a((F340.24600219726562
F61.052845001220703
tF7.7962031364440918
F335.171142578125
F0.038532566279172897
I5898497
I-1
tp72
a((F157.3328857421875
F62.032638549804688
tF7.6372780799865723
F44.396209716796875
F0.030510086566209793
I4456705
I-1
tp73
a((F116.80674743652344
F64.540962219238281
tF7.7559442520141602
F330.22698974609375
F0.037008535116910934
I5570817
I-1
tp74
a((F116.80674743652344
F64.540962219238281
tF7.7559442520141602
F144.84056091308594
F0.037008535116910934
I5570817
I-1
tp75
a((F27.728418350219727
F65.380729675292969
tF9.0049629211425781
F94.428558349609375
F0.034258630126714706
I16318721
I-1
tp76
a((F337.24899291992188
F24.974903106689453
tF10.218716621398926
F327.36221313476562
F0.041045036166906357
I8782337
I-1
tp77
a((F337.24899291992188
F24.974903106689453
tF10.218716621398926
F13.8507080078125
F0.041045036166906357
I8782337
I-1
tp78
a((F114.22231292724609
F27.681112289428711
tF9.7284584045410156
F311.1605224609375
F0.040112320333719254
I5243393
I-1
tp79
a((F114.22231292724609
F27.681112289428711
tF9.7284584045410156
F223.30107116699219
F0.040112320333719254
I5243393
I-1
tp80
a((F214.0306396484375
F28.179050445556641
tF10.604554176330566
F274.56396484375
F0.02845524437725544
I11469313
I-1
tp81
a((F214.0306396484375
F28.179050445556641
tF10.604554176330566
F80.31524658203125
F0.02845524437725544
I11469313
I-1
tp82
a((F203.44569396972656
F41.137123107910156
tF10.078948974609375
F179.26220703125
F0.030953595414757729
I7799297
I-1
tp83
a((F235.60031127929688
F28.337532043457031
tF11.853652000427246
F224.06504821777344
F0.01938844658434391
I2818817
I-1
tp84
a((F262.37567138671875
F45.380733489990234
tF13.199508666992188
F174.92401123046875
F0.031852368265390396
I10552065
I-1
tp85
a((F81.280845642089844
F48.446430206298828
tF13.000805854797363
F180.38467407226562
F0.03148830309510231
I9503489
I-1
tp86
a((F147.78926086425781
F47.256423950195312
tF12.962580680847168
F344.60592651367188
F0.031454272568225861
I9241345
I-1
tp87
a((F147.78926086425781
F47.256423950195312
tF12.962580680847168
F190.59695434570312
F0.031454272568225861
I9241345
I-1
tp88
a((F283.86550903320312
F44.396583557128906
tF18.055057525634766
F265.6884765625
F0.018320243805646896
I16515330
I-1
tp89
a((F45.342117309570312
F49.118003845214844
tF16.521657943725586
F349.00067138671875
F0.019223185256123543
I10092802
I-1
tp90
a((F45.342117309570312
F49.118003845214844
tF16.521657943725586
F193.33688354492188
F0.019223185256123543
I10092802
I-1
tp91
a((F182.57421875
F46.713352203369141
tF17.262504577636719
F175.80230712890625
F0.015741251409053802
I13304066
I-1
tp92
a.